Component: ARM Compiler 5.05 update 1 (build 106) Tool: armlink [4d0efa]

==============================================================================

Section Cross References

    stm32f10x.o(.ARM.__AT_0x20000000) refers (Special) to heapauxi.o(.text) for __use_two_region_memory
    stm32f10x.o(HEAP) refers (Special) to heapauxi.o(.text) for __use_two_region_memory
    stm32f10x.o(RESET) refers (Special) to heapauxi.o(.text) for __use_two_region_memory
    stm32f10x.o(RESET) refers to stm32f10x.o(.ARM.__AT_0x20000000) for __initial_sp
    stm32f10x.o(RESET) refers to stm32f10x.o(.text) for Reset_Handler
    stm32f10x.o(RESET) refers to stm32f10x_it.o(.text) for NMIException
    stm32f10x.o(RESET) refers to os_cpu_a.o(.text) for OS_CPU_PendSVHandler
    stm32f10x.o(RESET) refers to os_cpu_c.o(.text) for OS_CPU_SysTickHandler
    stm32f10x.o(STKV) refers (Special) to heapauxi.o(.text) for __use_two_region_memory
    stm32f10x.o(.text) refers (Special) to heapauxi.o(.text) for __use_two_region_memory
    stm32f10x.o(.text) refers to stm32f10x_it.o(.text) for HardFaultException
    stm32f10x.o(.text) refers to __main.o(!!!main) for __main
    stm32f10x.o(.text) refers to stm32f10x.o(STKV) for FAULT_MSG
    stm32f10x.o(.text) refers to stm32f10x.o(HEAP) for Heap_Mem
    stm32f10x.o(.text) refers to stm32f10x.o(.ARM.__AT_0x20000000) for Stack_Mem
    rtc.o(.text) refers to stm32f10x_rcc.o(.text) for RCC_APB1PeriphClockCmd
    rtc.o(.text) refers to stm32f10x_pwr.o(.text) for PWR_BackupAccessCmd
    rtc.o(.text) refers to stm32f10x_bkp.o(.text) for BKP_DeInit
    rtc.o(.text) refers to stm32f10x_rtc.o(.text) for RTC_WaitForSynchro
    rtc.o(.text) refers to misc.o(.text) for NVIC_Init
    rtc.o(.text) refers to rtc.o(.constdata) for Leap_Month_Seconds
    rtc.o(.text) refers to rtc.o(.data) for hour
    time.o(.text) refers to misc.o(.text) for NVIC_Init
    time.o(.text) refers to stm32f10x_rcc.o(.text) for RCC_APB1PeriphClockCmd
    time.o(.text) refers to stm32f10x_tim.o(.text) for TIM_ITConfig
    uart.o(.text) refers to stm32f10x_rcc.o(.text) for RCC_APB2PeriphClockCmd
    uart.o(.text) refers to stm32f10x_gpio.o(.text) for GPIO_Init
    uart.o(.text) refers to stm32f10x_usart.o(.text) for USART_Init
    uart.o(.text) refers to misc.o(.text) for NVIC_Init
    flash.o(.text) refers to os_wrap.o(.text) for docrc8
    flash.o(.text) refers to stm32f10x_flash.o(.text) for FLASH_Unlock
    delay.o(.text) refers to os_core.o(.text) for OSSchedLock
    wdg.o(.text) refers to stm32f10x_iwdg.o(.text) for IWDG_WriteAccessCmd
    led.o(.text) refers to stm32f10x_rcc.o(.text) for RCC_APB2PeriphClockCmd
    led.o(.text) refers to stm32f10x_gpio.o(.text) for GPIO_Init
    spi.o(.text) refers to stm32f10x_spi.o(.text) for SPI_I2S_GetFlagStatus
    spi.o(.text) refers to stm32f10x_rcc.o(.text) for RCC_APB2PeriphClockCmd
    spi.o(.text) refers to stm32f10x_gpio.o(.text) for GPIO_Init
    spi.o(.text) refers to spi.o(.bss) for SPI_InitStructure
    spiflash.o(.text) refers to stm32f10x_rcc.o(.text) for RCC_APB2PeriphClockCmd
    spiflash.o(.text) refers to stm32f10x_gpio.o(.text) for GPIO_Init
    spiflash.o(.text) refers to spi.o(.text) for SPI1_Init
    spiflash.o(.text) refers to delay.o(.text) for delay_us
    os_core.o(.text) refers to os_cpu_a.o(.text) for OS_CPU_SR_Save
    os_core.o(.text) refers to os_task.o(.text) for OSTaskCreate
    os_core.o(.text) refers to os_q.o(.text) for OS_QInit
    os_core.o(.text) refers to os_core.o(.data) for OSIdleCtr
    os_core.o(.text) refers to os_core.o(.bss) for OSTaskIdleStk
    os_core.o(.text) refers to os_core.o(.constdata) for OSUnMapTbl
    os_mutex.o(.text) refers to os_cpu_a.o(.text) for OS_CPU_SR_Save
    os_mutex.o(.text) refers to os_core.o(.text) for OS_EventWaitListInit
    os_mutex.o(.text) refers to os_core.o(.data) for OSIntNesting
    os_mutex.o(.text) refers to os_core.o(.bss) for OSTCBPrioTbl
    os_sem.o(.text) refers to os_cpu_a.o(.text) for OS_CPU_SR_Save
    os_sem.o(.text) refers to os_core.o(.text) for OS_EventWaitListInit
    os_sem.o(.text) refers to os_core.o(.data) for OSIntNesting
    os_task.o(.text) refers to os_cpu_a.o(.text) for OS_CPU_SR_Save
    os_task.o(.text) refers to os_core.o(.text) for OS_Sched
    os_task.o(.text) refers to os_cpu_c.o(.text) for OSTaskStkInit
    os_task.o(.text) refers to os_core.o(.bss) for OSTCBPrioTbl
    os_task.o(.text) refers to os_core.o(.data) for OSTCBCur
    os_time.o(.text) refers to os_cpu_a.o(.text) for OS_CPU_SR_Save
    os_time.o(.text) refers to os_core.o(.text) for OS_Sched
    os_time.o(.text) refers to os_core.o(.data) for OSIntNesting
    os_time.o(.text) refers to os_core.o(.bss) for OSTCBPrioTbl
    cpu_c.o(.text) refers to cpu_a.o(.text) for CPU_SR_Save
    os_cpu_a.o(.text) refers to os_core.o(.data) for OSRunning
    os_cpu_c.o(.text) refers to os_cpu_a.o(.text) for OS_CPU_SR_Save
    os_cpu_c.o(.text) refers to os_core.o(.text) for OSTimeTick
    os_cpu_c.o(.text) refers to stm32f10x_rcc.o(.text) for RCC_GetClocksFreq
    os_cpu_c.o(.text) refers to os_core.o(.data) for OSIntNesting
    os_mbox.o(.text) refers to os_cpu_a.o(.text) for OS_CPU_SR_Save
    os_mbox.o(.text) refers to os_core.o(.text) for OS_EventWaitListInit
    os_mbox.o(.text) refers to os_core.o(.data) for OSIntNesting
    os_q.o(.text) refers to os_cpu_a.o(.text) for OS_CPU_SR_Save
    os_q.o(.text) refers to os_core.o(.text) for OS_EventWaitListInit
    os_q.o(.text) refers to os_core.o(.data) for OSIntNesting
    os_q.o(.text) refers to os_core.o(.bss) for OSQTbl
    main.o(.text) refers to stm32f10x_rcc.o(.text) for RCC_DeInit
    main.o(.text) refers to stm32f10x_flash.o(.text) for FLASH_SetLatency
    main.o(.text) refers to misc.o(.text) for NVIC_SetVectorTable
    main.o(.text) refers to os_wrap.o(.text) for OS_WrapInit
    main.o(.text) refers to main.o(.data) for Dispatcher_Task_Handle
    main.o(.text) refers to dispatcher.o(.text) for Dispatcher_Task
    systeminit.o(.text) refers to airiap.o(.text) for ReadLocalConfig
    systeminit.o(.text) refers to wirelessapp.o(.text) for Wireless_ResetIO
    systeminit.o(.text) refers to os_time.o(.text) for OSTimeDly
    systeminit.o(.text) refers to os_wrap.o(.text) for OS_MsgBoxCreate
    systeminit.o(.text) refers to os_cpu_c.o(.text) for OS_CPU_SysTickInit
    systeminit.o(.text) refers to cpu_c.o(.text) for CPU_IntSrcPrioSet
    systeminit.o(.text) refers to wdg.o(.text) for IWDG_Init
    systeminit.o(.text) refers to rtc.o(.text) for RTC_SetUp
    systeminit.o(.text) refers to foodlinecontrol.o(.text) for ControlMsgBoxInit
    systeminit.o(.text) refers to spiflash.o(.text) for SPI_Flash_Init
    systeminit.o(.text) refers to displayprotocol.o(.text) for DisplayComm_Init
    systeminit.o(.text) refers to parasettinglib.o(.text) for ParaSettingLibInit
    systeminit.o(.text) refers to wlan4gcomm.o(.text) for Wlan4G_SetServer
    systeminit.o(.text) refers to wlan4gapp.o(.text) for Wlan4G_Init
    systeminit.o(.text) refers to stm32f10x_usart.o(.text) for USART_ITConfig
    systeminit.o(.text) refers to systeminit.o(.data) for gLocalDeviceId
    systeminit.o(.text) refers to systeminit.o(.bss) for gLocalConfigPara
    systeminit.o(.text) refers to displayprotocol.o(.data) for gDisplaySend_Queue
    systeminit.o(.text) refers to wirelesscomm.o(.text) for WirelessApp_SendData
    dispatcher.o(.text) refers to os_wrap.o(.text) for OS_MsgBoxCreate
    dispatcher.o(.text) refers to systeminit.o(.text) for MZ_SYS_Init
    dispatcher.o(.text) refers to wdg.o(.text) for IWDG_Feed
    dispatcher.o(.text) refers to dispatcher.o(.data) for gDispatchHandler_Queue
    dispatcher.o(.text) refers to systeminit.o(.bss) for MZQsTaskRecord
    wirelessapp.o(.text) refers to stm32f10x_rcc.o(.text) for RCC_APB2PeriphClockCmd
    wirelessapp.o(.text) refers to stm32f10x_gpio.o(.text) for GPIO_Init
    wirelessapp.o(.text) refers to uart.o(.text) for COM3_Init
    wirelessapp.o(.text) refers to wirelesscomm.o(.text) for WirelessComm_Init
    wirelessapp.o(.text) refers to os_time.o(.text) for OSTimeDly
    wirelessapp.o(.text) refers to os_core.o(.text) for OS_MemCopy
    wirelessapp.o(.text) refers to airiap.o(.text) for WriteLocalConfig
    wirelessapp.o(.text) refers to os_wrap.o(.text) for OS_MemSet
    wirelessapp.o(.text) refers to parasettinglib.o(.text) for ParaRefreshGet
    wirelessapp.o(.text) refers to foodlinecontrol.o(.text) for DeviceControlParaGet
    wirelessapp.o(.text) refers to wirelessapp.o(.bss) for s_SeqHistory
    wirelessapp.o(.text) refers to wirelessapp.o(.data) for s_cOldestIndex
    wirelessapp.o(.text) refers to systeminit.o(.data) for gLocalDeviceId
    wirelessapp.o(.text) refers to foodlinecontrol.o(.data) for gControlSendNotify_Queue
    wlan4gapp.o(.text) refers to stm32f10x_rcc.o(.text) for RCC_APB2PeriphClockCmd
    wlan4gapp.o(.text) refers to stm32f10x_gpio.o(.text) for GPIO_Init
    wlan4gapp.o(.text) refers to uart.o(.text) for COM1_Init
    wlan4gapp.o(.text) refers to wlan4gcomm.o(.text) for Wlan4GComm_Init
    wlan4gapp.o(.text) refers to os_wrap.o(.text) for OS_MemCpy
    wlan4gapp.o(.text) refers to wirelesscomm.o(.text) for WirelessComm_SendData
    wlan4gapp.o(.text) refers to airiap.o(.text) for RcvIapData
    wlan4gapp.o(.text) refers to systeminit.o(.data) for gUploadDeviceId
    wlan4gapp.o(.text) refers to wlan4gcomm.o(.bss) for USimICCID
    displayprotocol.o(.text) refers to _printf_percent.o(.ARM.Collect$$_printf_percent$$00000000) for _printf_percent
    displayprotocol.o(.text) refers to _printf_d.o(.ARM.Collect$$_printf_percent$$00000009) for _printf_d
    displayprotocol.o(.text) refers to _printf_dec.o(.text) for _printf_int_dec
    displayprotocol.o(.text) refers to uart.o(.text) for COM2_Init
    displayprotocol.o(.text) refers to os_wrap.o(.text) for OS_MemSet
    displayprotocol.o(.text) refers to displaypara.o(.text) for DisplayParaInit
    displayprotocol.o(.text) refers to stm32f10x_usart.o(.text) for USART_SendData
    displayprotocol.o(.text) refers to os_time.o(.text) for OSTimeDly
    displayprotocol.o(.text) refers to parasettinglib.o(.text) for ScrInfGet
    displayprotocol.o(.text) refers to page1flinepathconfig.o(.text) for Page1FlinePathConfigRefresh
    displayprotocol.o(.text) refers to page2pathconfig.o(.text) for Page2PathConfigRefresh
    displayprotocol.o(.text) refers to page3flinedevice.o(.text) for Page3FlineDeviceRefresh
    displayprotocol.o(.text) refers to page5revise.o(.text) for Page5ReviseRefresh
    displayprotocol.o(.text) refers to page6readpathconfig.o(.text) for Page6PathConfigRefresh
    displayprotocol.o(.text) refers to page7controlfline.o(.text) for Page7ControlFlineRefresh
    displayprotocol.o(.text) refers to page8switchvalve.o(.text) for Page8SwitchValveRefresh
    displayprotocol.o(.text) refers to page9switchvalveconfig.o(.text) for Page9SwitchValveConfigRefresh
    displayprotocol.o(.text) refers to page10towersout.o(.text) for Page10TowersOutRefresh
    displayprotocol.o(.text) refers to page11towersoutconfig.o(.text) for Page11TowersOutConfigRefresh
    displayprotocol.o(.text) refers to page12s1s2control.o(.text) for Page12S1S2ControlRefresh
    displayprotocol.o(.text) refers to page13linkconfig .o(.text) for Page13LinkConfigRefresh
    displayprotocol.o(.text) refers to page14w1control.o(.text) for Page14W1ControlRefresh
    displayprotocol.o(.text) refers to page15w2control.o(.text) for Page15W2ControlRefresh
    displayprotocol.o(.text) refers to page16e1e2control.o(.text) for Page16E1E2ControlRefresh
    displayprotocol.o(.text) refers to page17c1control.o(.text) for Page17C1ControlRefresh
    displayprotocol.o(.text) refers to page18c2control.o(.text) for Page18C2ControlRefresh
    displayprotocol.o(.text) refers to page19n1control.o(.text) for Page19N1ControlRefresh
    displayprotocol.o(.text) refers to page20n2control.o(.text) for Page20N2ControlRefresh
    displayprotocol.o(.text) refers to os_cpu_a.o(.text) for OS_CPU_SR_Save
    displayprotocol.o(.text) refers to rt_memclr.o(.text) for __aeabi_memclr
    displayprotocol.o(.text) refers to noretval__2sprintf.o(.text) for __2sprintf
    displayprotocol.o(.text) refers to displayprotocol.o(.data) for DisplaySndMsgs
    displayprotocol.o(.text) refers to displayprotocol.o(.bss) for gDisplayMsgBodyLen
    displayprotocol.o(.text) refers to rtc.o(.text) for TimeDeciConvertHex
    stm32f10x_it.o(.text) refers to os_wrap.o(.text) for OS_TaskStkCheck
    stm32f10x_it.o(.text) refers to cpu_a.o(.text) for CPU_SR_Save
    stm32f10x_it.o(.text) refers to stm32f10x_rtc.o(.text) for RTC_GetITStatus
    stm32f10x_it.o(.text) refers to os_core.o(.text) for OSIntExit
    stm32f10x_it.o(.text) refers to wlan4gcomm.o(.text) for Wlan4GIntService
    stm32f10x_it.o(.text) refers to stm32f10x_usart.o(.text) for USART_GetITStatus
    stm32f10x_it.o(.text) refers to wirelesscomm.o(.text) for WirelessIntService
    stm32f10x_it.o(.text) refers to os_core.o(.data) for OSIntNesting
    stm32f10x_it.o(.text) refers to stm32f10x_it.o(.data) for gRightSign
    stm32f10x_it.o(.text) refers to stm32f10x_it.o(.bss) for DisplayUartRxBuf
    stm32f10x_it.o(.text) refers to displayprotocol.o(.bss) for gDisplayMsgBodyLen
    stm32f10x_it.o(.text) refers to displayprotocol.o(.data) for gDisplayMsg_Queue
    stm32f10x_adc.o(.text) refers to stm32f10x_rcc.o(.text) for RCC_APB2PeriphResetCmd
    stm32f10x_bkp.o(.text) refers to stm32f10x_rcc.o(.text) for RCC_BackupResetCmd
    stm32f10x_gpio.o(.text) refers to stm32f10x_rcc.o(.text) for RCC_APB2PeriphResetCmd
    stm32f10x_pwr.o(.text) refers to stm32f10x_rcc.o(.text) for RCC_APB1PeriphResetCmd
    stm32f10x_rcc.o(.text) refers to stm32f10x_rcc.o(.data) for APBAHBPrescTable
    stm32f10x_spi.o(.text) refers to stm32f10x_rcc.o(.text) for RCC_APB2PeriphResetCmd
    stm32f10x_tim.o(.text) refers to stm32f10x_rcc.o(.text) for RCC_APB2PeriphResetCmd
    stm32f10x_usart.o(.text) refers to stm32f10x_rcc.o(.text) for RCC_APB2PeriphResetCmd
    os_wrap.o(.text) refers to os_cpu_a.o(.text) for OS_CPU_SR_Save
    os_wrap.o(.text) refers to os_core.o(.text) for OSInit
    os_wrap.o(.text) refers to os_time.o(.text) for OSTimeSet
    os_wrap.o(.text) refers to os_task.o(.text) for OSTaskCreate
    os_wrap.o(.text) refers to os_wrap.o(.bss) for HeapRecord
    os_wrap.o(.text) refers to systeminit.o(.bss) for HMem
    os_wrap.o(.text) refers to systeminit.o(.data) for SysHMemLeftLen
    os_wrap.o(.text) refers to os_q.o(.text) for OSQCreate
    os_wrap.o(.text) refers to os_sem.o(.text) for OSSemCreate
    os_wrap.o(.text) refers to os_core.o(.data) for OSIntNesting
    os_wrap.o(.text) refers to os_mbox.o(.text) for OSMboxCreate
    os_wrap.o(.text) refers to os_mutex.o(.text) for OSMutexCreate
    os_wrap.o(.text) refers to f2d.o(x$fpl$f2d) for __aeabi_f2d
    os_wrap.o(.text) refers to dleqf.o(x$fpl$dleqf) for __aeabi_cdcmple
    os_wrap.o(.text) refers to fmul.o(x$fpl$fmul) for __aeabi_fmul
    os_wrap.o(.text) refers to ffix.o(x$fpl$ffix) for __aeabi_f2iz
    os_wrap.o(.text) refers to fflt_clz.o(x$fpl$fflt) for __aeabi_i2f
    os_wrap.o(.text) refers to faddsub_clz.o(x$fpl$frsb) for __aeabi_frsub
    os_wrap.o(.text) refers to drleqf.o(x$fpl$drleqf) for __aeabi_cdrcmple
    os_wrap.o(.text) refers to os_wrap.o(.data) for Prio
    os_wrap.o(.text) refers to core_cm3.o(.emb_text) for __REV16
    os_wrap.o(.text) refers to os_wrap.o(.constdata) for crc8table
    displaypara.o(.text) refers to displayprotocol.o(.text) for DisplayCommJumpToPic
    displaypara.o(.text) refers to page1flinepathconfig.o(.text) for Page1FlinePathConfigInit
    displaypara.o(.text) refers to page2pathconfig.o(.text) for Page2PathConfigInit
    displaypara.o(.text) refers to page3flinedevice.o(.text) for Page3FlineDeviceInit
    displaypara.o(.text) refers to page5revise.o(.text) for Page5ReviseInit
    displaypara.o(.text) refers to page6readpathconfig.o(.text) for Page6PathConfigInit
    displaypara.o(.text) refers to page7controlfline.o(.text) for Page7ControlFlineInit
    displaypara.o(.text) refers to page8switchvalve.o(.text) for Page8SwitchValveInit
    displaypara.o(.text) refers to page9switchvalveconfig.o(.text) for Page9SwitchValveConfigInit
    displaypara.o(.text) refers to page10towersout.o(.text) for Page10TowersOutInit
    displaypara.o(.text) refers to page11towersoutconfig.o(.text) for Page11TowersOutConfigInit
    displaypara.o(.text) refers to page12s1s2control.o(.text) for Page12S1S2ControlInit
    displaypara.o(.text) refers to page13linkconfig .o(.text) for Page13LinkConfigInit
    displaypara.o(.text) refers to page14w1control.o(.text) for Page14W1ControlInit
    displaypara.o(.text) refers to page15w2control.o(.text) for Page15W2ControlInit
    displaypara.o(.text) refers to page16e1e2control.o(.text) for Page16E1E2ControlInit
    displaypara.o(.text) refers to page17c1control.o(.text) for Page17C1ControlInit
    displaypara.o(.text) refers to page18c2control.o(.text) for Page18C2ControlInit
    displaypara.o(.text) refers to page19n1control.o(.text) for Page19N1ControlInit
    displaypara.o(.text) refers to page20n2control.o(.text) for Page20N2ControlInit
    displaypara.o(.text) refers to parasettinglib.o(.text) for ScrInfGet
    displaypara.o(.text) refers to displaypara.o(.data) for afterDealState
    parasettinglib.o(.text) refers to spiflash.o(.text) for SPI_Flash_Read
    parasettinglib.o(.text) refers to rt_memclr_w.o(.text) for __aeabi_memclr4
    parasettinglib.o(.text) refers to wdg.o(.text) for IWDG_Feed
    parasettinglib.o(.text) refers to wirelesscomm.o(.text) for WirelessApp_SendData
    parasettinglib.o(.text) refers to parasettinglib.o(.bss) for FoodLineTime
    parasettinglib.o(.text) refers to parasettinglib.o(.data) for gHead
    parasettinglib.o(.text) refers to systeminit.o(.text) for LocalDeviceIdGet
    foodlinecontrol.o(.text) refers to os_wrap.o(.text) for OS_MsgBoxCreate
    foodlinecontrol.o(.text) refers to statemachine.o(.text) for StateMachineInit
    foodlinecontrol.o(.text) refers to parasettinglib.o(.text) for AllTheControlParaGet
    foodlinecontrol.o(.text) refers to systeminit.o(.text) for LocalDeviceIdGet
    foodlinecontrol.o(.text) refers to os_time.o(.text) for OSTimeGet
    foodlinecontrol.o(.text) refers to foodlinecontrol.o(.data) for gFlineCtrlSeq
    foodlinecontrol.o(.text) refers to foodlinecontrol.o(.bss) for gDeviceControlPara
    foodlinecontrol.o(.text) refers to statemachine.o(.data) for NormalStopFlag
    foodlinecontrol.o(.text) refers to rtc.o(.text) for RTC_GetTime
    statemachine.o(.text) refers to foodlinecontrol.o(.text) for DeviceControlParaGet
    statemachine.o(.text) refers to parasettinglib.o(.text) for AllTheControlParaGet
    statemachine.o(.text) refers to os_time.o(.text) for OSTimeDly
    statemachine.o(.text) refers to statemachine.o(.data) for gState
    statemachine.o(.text) refers to statemachine.o(.bss) for gStateReady
    statemachine.o(.text) refers to os_wrap.o(.text) for OS_MsgBoxSend
    statemachine.o(.text) refers to foodlinecontrol.o(.data) for gControlStartRe_Queue
    page2pathconfig.o(.text) refers to _printf_pad.o(.text) for _printf_pre_padding
    page2pathconfig.o(.text) refers to _printf_percent.o(.ARM.Collect$$_printf_percent$$00000000) for _printf_percent
    page2pathconfig.o(.text) refers to _printf_x.o(.ARM.Collect$$_printf_percent$$0000000C) for _printf_x
    page2pathconfig.o(.text) refers to _printf_hex_int.o(.text) for _printf_longlong_hex
    page2pathconfig.o(.text) refers to displayprotocol.o(.text) for DisplayCommIconSend
    page2pathconfig.o(.text) refers to parasettinglib.o(.text) for ScrInfGet
    page2pathconfig.o(.text) refers to systeminit.o(.text) for LocalDeviceIdGet
    page2pathconfig.o(.text) refers to page2pathconfig.o(.data) for gP2Table
    page2pathconfig.o(.text) refers to noretval__2sprintf.o(.text) for __2sprintf
    page2pathconfig.o(.text) refers to os_time.o(.text) for OSTimeDly
    page1flinepathconfig.o(.text) refers to _printf_pad.o(.text) for _printf_pre_padding
    page1flinepathconfig.o(.text) refers to _printf_percent.o(.ARM.Collect$$_printf_percent$$00000000) for _printf_percent
    page1flinepathconfig.o(.text) refers to _printf_x.o(.ARM.Collect$$_printf_percent$$0000000C) for _printf_x
    page1flinepathconfig.o(.text) refers to _printf_hex_int.o(.text) for _printf_longlong_hex
    page1flinepathconfig.o(.text) refers to parasettinglib.o(.text) for WirlessParaGet
    page1flinepathconfig.o(.text) refers to displayprotocol.o(.text) for DisplayCommNumSend
    page1flinepathconfig.o(.text) refers to noretval__2sprintf.o(.text) for __2sprintf
    page1flinepathconfig.o(.text) refers to os_time.o(.text) for OSTimeDly
    page1flinepathconfig.o(.text) refers to page1flinepathconfig.o(.bss) for gflinePara
    page1flinepathconfig.o(.text) refers to page1flinepathconfig.o(.data) for gSeq
    page3flinedevice.o(.text) refers to _printf_pad.o(.text) for _printf_pre_padding
    page3flinedevice.o(.text) refers to _printf_percent.o(.ARM.Collect$$_printf_percent$$00000000) for _printf_percent
    page3flinedevice.o(.text) refers to _printf_x.o(.ARM.Collect$$_printf_percent$$0000000C) for _printf_x
    page3flinedevice.o(.text) refers to _printf_hex_int.o(.text) for _printf_longlong_hex
    page3flinedevice.o(.text) refers to parasettinglib.o(.text) for PathTrav
    page3flinedevice.o(.text) refers to systeminit.o(.text) for LocalDeviceIdGet
    page3flinedevice.o(.text) refers to displayprotocol.o(.text) for DisplayCommIconSend
    page3flinedevice.o(.text) refers to os_time.o(.text) for OSTimeDly
    page3flinedevice.o(.text) refers to page3flinedevice.o(.data) for gPage3DevicePara
    page3flinedevice.o(.text) refers to noretval__2sprintf.o(.text) for __2sprintf
    page5revise.o(.text) refers to _printf_pad.o(.text) for _printf_pre_padding
    page5revise.o(.text) refers to _printf_percent.o(.ARM.Collect$$_printf_percent$$00000000) for _printf_percent
    page5revise.o(.text) refers to _printf_x.o(.ARM.Collect$$_printf_percent$$0000000C) for _printf_x
    page5revise.o(.text) refers to _printf_hex_int.o(.text) for _printf_longlong_hex
    page5revise.o(.text) refers to parasettinglib.o(.text) for WirlessParaGet
    page5revise.o(.text) refers to systeminit.o(.text) for LocalDeviceIdGet
    page5revise.o(.text) refers to displayprotocol.o(.text) for DisplayCommNumSend
    page5revise.o(.text) refers to noretval__2sprintf.o(.text) for __2sprintf
    page5revise.o(.text) refers to os_time.o(.text) for OSTimeDly
    page5revise.o(.text) refers to page5revise.o(.data) for gPage5NewDevicePara
    page6readpathconfig.o(.text) refers to _printf_pad.o(.text) for _printf_pre_padding
    page6readpathconfig.o(.text) refers to _printf_percent.o(.ARM.Collect$$_printf_percent$$00000000) for _printf_percent
    page6readpathconfig.o(.text) refers to _printf_x.o(.ARM.Collect$$_printf_percent$$0000000C) for _printf_x
    page6readpathconfig.o(.text) refers to _printf_hex_int.o(.text) for _printf_longlong_hex
    page6readpathconfig.o(.text) refers to displayprotocol.o(.text) for DisplayCommIconSend
    page6readpathconfig.o(.text) refers to parasettinglib.o(.text) for ScrInfGet
    page6readpathconfig.o(.text) refers to systeminit.o(.text) for LocalDeviceIdGet
    page6readpathconfig.o(.text) refers to rt_memclr_w.o(.text) for __aeabi_memclr4
    page6readpathconfig.o(.text) refers to noretval__2sprintf.o(.text) for __2sprintf
    page6readpathconfig.o(.text) refers to os_time.o(.text) for OSTimeDly
    page6readpathconfig.o(.text) refers to page6readpathconfig.o(.data) for gP6Table
    page7controlfline.o(.text) refers to _printf_pad.o(.text) for _printf_pre_padding
    page7controlfline.o(.text) refers to _printf_percent.o(.ARM.Collect$$_printf_percent$$00000000) for _printf_percent
    page7controlfline.o(.text) refers to _printf_x.o(.ARM.Collect$$_printf_percent$$0000000C) for _printf_x
    page7controlfline.o(.text) refers to _printf_hex_int.o(.text) for _printf_longlong_hex
    page7controlfline.o(.text) refers to parasettinglib.o(.text) for FoodlineControlGet
    page7controlfline.o(.text) refers to systeminit.o(.text) for LocalDeviceIdGet
    page7controlfline.o(.text) refers to displayprotocol.o(.text) for DisplayCommNumSend
    page7controlfline.o(.text) refers to noretval__2sprintf.o(.text) for __2sprintf
    page7controlfline.o(.text) refers to os_time.o(.text) for OSTimeDly
    page7controlfline.o(.text) refers to page7controlfline.o(.data) for gPage7DevicePara
    page8switchvalve.o(.text) refers to _printf_pad.o(.text) for _printf_pre_padding
    page8switchvalve.o(.text) refers to _printf_percent.o(.ARM.Collect$$_printf_percent$$00000000) for _printf_percent
    page8switchvalve.o(.text) refers to _printf_x.o(.ARM.Collect$$_printf_percent$$0000000C) for _printf_x
    page8switchvalve.o(.text) refers to _printf_hex_int.o(.text) for _printf_longlong_hex
    page8switchvalve.o(.text) refers to parasettinglib.o(.text) for SwitchValveControlGet
    page8switchvalve.o(.text) refers to systeminit.o(.text) for LocalDeviceIdGet
    page8switchvalve.o(.text) refers to displayprotocol.o(.text) for DisplayCommNumSend
    page8switchvalve.o(.text) refers to noretval__2sprintf.o(.text) for __2sprintf
    page8switchvalve.o(.text) refers to os_time.o(.text) for OSTimeDly
    page8switchvalve.o(.text) refers to page8switchvalve.o(.data) for gPage8DevicePara
    page9switchvalveconfig.o(.text) refers to _printf_pad.o(.text) for _printf_pre_padding
    page9switchvalveconfig.o(.text) refers to _printf_percent.o(.ARM.Collect$$_printf_percent$$00000000) for _printf_percent
    page9switchvalveconfig.o(.text) refers to _printf_x.o(.ARM.Collect$$_printf_percent$$0000000C) for _printf_x
    page9switchvalveconfig.o(.text) refers to _printf_hex_int.o(.text) for _printf_longlong_hex
    page9switchvalveconfig.o(.text) refers to parasettinglib.o(.text) for PathTrav
    page9switchvalveconfig.o(.text) refers to systeminit.o(.text) for LocalDeviceIdGet
    page9switchvalveconfig.o(.text) refers to displayprotocol.o(.text) for DisplayCommIconSend
    page9switchvalveconfig.o(.text) refers to os_time.o(.text) for OSTimeDly
    page9switchvalveconfig.o(.text) refers to noretval__2sprintf.o(.text) for __2sprintf
    page9switchvalveconfig.o(.text) refers to page9switchvalveconfig.o(.data) for gPage9DevicePara
    page10towersout.o(.text) refers to _printf_pad.o(.text) for _printf_pre_padding
    page10towersout.o(.text) refers to _printf_percent.o(.ARM.Collect$$_printf_percent$$00000000) for _printf_percent
    page10towersout.o(.text) refers to _printf_x.o(.ARM.Collect$$_printf_percent$$0000000C) for _printf_x
    page10towersout.o(.text) refers to _printf_hex_int.o(.text) for _printf_longlong_hex
    page10towersout.o(.text) refers to parasettinglib.o(.text) for TowersOutControlGet
    page10towersout.o(.text) refers to systeminit.o(.text) for LocalDeviceIdGet
    page10towersout.o(.text) refers to displayprotocol.o(.text) for DisplayCommNumSend
    page10towersout.o(.text) refers to noretval__2sprintf.o(.text) for __2sprintf
    page10towersout.o(.text) refers to os_time.o(.text) for OSTimeDly
    page10towersout.o(.text) refers to page10towersout.o(.data) for gPage10DevicePara
    page11towersoutconfig.o(.text) refers to _printf_pad.o(.text) for _printf_pre_padding
    page11towersoutconfig.o(.text) refers to _printf_percent.o(.ARM.Collect$$_printf_percent$$00000000) for _printf_percent
    page11towersoutconfig.o(.text) refers to _printf_x.o(.ARM.Collect$$_printf_percent$$0000000C) for _printf_x
    page11towersoutconfig.o(.text) refers to _printf_hex_int.o(.text) for _printf_longlong_hex
    page11towersoutconfig.o(.text) refers to parasettinglib.o(.text) for PathTrav
    page11towersoutconfig.o(.text) refers to systeminit.o(.text) for LocalDeviceIdGet
    page11towersoutconfig.o(.text) refers to displayprotocol.o(.text) for DisplayCommIconSend
    page11towersoutconfig.o(.text) refers to os_time.o(.text) for OSTimeDly
    page11towersoutconfig.o(.text) refers to noretval__2sprintf.o(.text) for __2sprintf
    page11towersoutconfig.o(.text) refers to page11towersoutconfig.o(.data) for gPage11DevicePara
    page12s1s2control.o(.text) refers to parasettinglib.o(.text) for AllTheControlParaGet
    page12s1s2control.o(.text) refers to displayprotocol.o(.text) for DisplayCommIconSend
    page12s1s2control.o(.text) refers to foodlinecontrol.o(.text) for DeviceControlParaGet
    page12s1s2control.o(.text) refers to os_time.o(.text) for OSTimeDly
    page13linkconfig .o(.text) refers to displayprotocol.o(.text) for DisplayCommIconSend
    page13linkconfig .o(.text) refers to parasettinglib.o(.text) for ScrInfGet
    page13linkconfig .o(.text) refers to os_time.o(.text) for OSTimeDly
    page13linkconfig .o(.text) refers to page13linkconfig .o(.data) for gP13Table
    page13linkconfig .o(.text) refers to parasettinglib.o(.bss) for gAllTheControlPara
    page14w1control.o(.text) refers to parasettinglib.o(.text) for AllTheControlParaGet
    page14w1control.o(.text) refers to displayprotocol.o(.text) for DisplayCommIconSend
    page14w1control.o(.text) refers to foodlinecontrol.o(.text) for DeviceControlParaGet
    page14w1control.o(.text) refers to os_time.o(.text) for OSTimeDly
    page14w1control.o(.text) refers to page14w1control.o(.data) for AreaW1Num
    page15w2control.o(.text) refers to parasettinglib.o(.text) for AllTheControlParaGet
    page15w2control.o(.text) refers to page14w1control.o(.data) for AreaW1Num
    page15w2control.o(.text) refers to displayprotocol.o(.text) for DisplayCommIconSend
    page15w2control.o(.text) refers to foodlinecontrol.o(.text) for DeviceControlParaGet
    page15w2control.o(.text) refers to os_time.o(.text) for OSTimeDly
    page16e1e2control.o(.text) refers to parasettinglib.o(.text) for AllTheControlParaGet
    page16e1e2control.o(.text) refers to displayprotocol.o(.text) for DisplayCommIconSend
    page16e1e2control.o(.text) refers to foodlinecontrol.o(.text) for DeviceControlParaGet
    page16e1e2control.o(.text) refers to os_time.o(.text) for OSTimeDly
    page17c1control.o(.text) refers to parasettinglib.o(.text) for AllTheControlParaGet
    page17c1control.o(.text) refers to displayprotocol.o(.text) for DisplayCommIconSend
    page17c1control.o(.text) refers to foodlinecontrol.o(.text) for DeviceControlParaGet
    page17c1control.o(.text) refers to os_time.o(.text) for OSTimeDly
    page17c1control.o(.text) refers to page17c1control.o(.data) for AreaC1Num
    page18c2control.o(.text) refers to parasettinglib.o(.text) for AllTheControlParaGet
    page18c2control.o(.text) refers to page17c1control.o(.data) for AreaC1Num
    page18c2control.o(.text) refers to displayprotocol.o(.text) for DisplayCommIconSend
    page18c2control.o(.text) refers to foodlinecontrol.o(.text) for DeviceControlParaGet
    page18c2control.o(.text) refers to os_time.o(.text) for OSTimeDly
    page19n1control.o(.text) refers to parasettinglib.o(.text) for AllTheControlParaGet
    page19n1control.o(.text) refers to displayprotocol.o(.text) for DisplayCommIconSend
    page19n1control.o(.text) refers to os_time.o(.text) for OSTimeDly
    page19n1control.o(.text) refers to foodlinecontrol.o(.text) for DeviceControlParaGet
    page19n1control.o(.text) refers to page19n1control.o(.data) for AreaN1Num
    page20n2control.o(.text) refers to parasettinglib.o(.text) for AllTheControlParaGet
    page20n2control.o(.text) refers to displayprotocol.o(.text) for DisplayCommIconSend
    page20n2control.o(.text) refers to os_time.o(.text) for OSTimeDly
    page20n2control.o(.text) refers to foodlinecontrol.o(.text) for DeviceControlParaGet
    page20n2control.o(.text) refers to page19n1control.o(.data) for AreaN1Num
    wirelesscomm.o(.text) refers to os_wrap.o(.text) for OS_MsgBoxCreate
    wirelesscomm.o(.text) refers to wirelessapp.o(.text) for WirelessApp_ForwMsg
    wirelesscomm.o(.text) refers to stm32f10x_usart.o(.text) for USART_SendData
    wirelesscomm.o(.text) refers to wirelesscomm.o(.data) for wireless_uart
    wirelesscomm.o(.text) refers to systeminit.o(.data) for gLocalDeviceId
    wirelesscomm.o(.text) refers to os_time.o(.text) for OSTimeDly
    wirelesscomm.o(.text) refers to os_cpu_a.o(.text) for OS_CPU_SR_Save
    wirelesscomm.o(.text) refers to cpu_a.o(.text) for CPU_SR_Save
    wirelesscomm.o(.text) refers to os_core.o(.text) for OSIntExit
    wirelesscomm.o(.text) refers to os_core.o(.data) for OSIntNesting
    wirelesscomm.o(.text) refers to wirelesscomm.o(.bss) for wlanintevt
    wlan4gcomm.o(.text) refers to os_wrap.o(.text) for OS_MsgBoxCreate
    wlan4gcomm.o(.text) refers to stm32f10x_usart.o(.text) for USART_GetFlagStatus
    wlan4gcomm.o(.text) refers to rt_memcpy_w.o(.text) for __aeabi_memcpy4
    wlan4gcomm.o(.text) refers to wlan4gapp.o(.text) for Wlan4G_Stat
    wlan4gcomm.o(.text) refers to os_time.o(.text) for OSTimeDly
    wlan4gcomm.o(.text) refers to wlan4gcomm.o(.data) for wlan4g_uart
    wlan4gcomm.o(.text) refers to wlan4gcomm.o(.bss) for USimICCID
    wlan4gcomm.o(.text) refers to wlan4gcomm.o(.constdata) for .constdata
    wlan4gcomm.o(.text) refers to cpu_a.o(.text) for CPU_SR_Save
    wlan4gcomm.o(.text) refers to os_core.o(.text) for OSIntExit
    wlan4gcomm.o(.text) refers to os_core.o(.data) for OSIntNesting
    airiap.o(.text) refers to flash.o(.text) for FlashErase
    airiap.o(.text) refers to os_core.o(.text) for OS_MemCopy
    airiap.o(.text) refers to os_wrap.o(.text) for docrc8
    airiap.o(.text) refers to airiap.o(.data) for iapinfo_address
    airiap.o(.text) refers to airiap.o(.bss) for DefInfo
    airiap.o(.text) refers to systeminit.o(.data) for gLocalInfoFromRom
    airiap.o(.text) refers to os_time.o(.text) for OSTimeDly
    airiap.o(.text) refers to rtc.o(.text) for RTC_GetTime
    airiap.o(.text) refers to stm32f10x_rtc.o(.text) for RTC_WaitForLastTask
    __2sprintf.o(.text) refers to _printf_char_common.o(.text) for _printf_char_common
    __2sprintf.o(.text) refers to _sputc.o(.text) for _sputc
    noretval__2sprintf.o(.text) refers to _printf_char_common.o(.text) for _printf_char_common
    noretval__2sprintf.o(.text) refers to _sputc.o(.text) for _sputc
    __printf.o(.text) refers to _printf_percent.o(.ARM.Collect$$_printf_percent$$00000000) for _printf_percent
    _printf_dec.o(.text) refers to _printf_intcommon.o(.text) for _printf_int_common
    _printf_hex_ll.o(.text) refers to _printf_intcommon.o(.text) for _printf_int_common
    _printf_hex_ll.o(.text) refers to _printf_hex_ll.o(.constdata) for .constdata
    _printf_hex_int.o(.text) refers to _printf_intcommon.o(.text) for _printf_int_common
    _printf_hex_int.o(.text) refers to _printf_hex_int.o(.constdata) for .constdata
    _printf_hex_int_ll.o(.text) refers to _printf_intcommon.o(.text) for _printf_int_common
    _printf_hex_int_ll.o(.text) refers to _printf_hex_int_ll.o(.constdata) for .constdata
    _printf_hex_ptr.o(.text) refers to _printf_intcommon.o(.text) for _printf_int_common
    _printf_hex_ptr.o(.text) refers to _printf_hex_ptr.o(.constdata) for .constdata
    _printf_hex_int_ptr.o(.text) refers to _printf_intcommon.o(.text) for _printf_int_common
    _printf_hex_int_ptr.o(.text) refers to _printf_hex_int_ptr.o(.constdata) for .constdata
    _printf_hex_ll_ptr.o(.text) refers to _printf_intcommon.o(.text) for _printf_int_common
    _printf_hex_ll_ptr.o(.text) refers to _printf_hex_ll_ptr.o(.constdata) for .constdata
    _printf_hex_int_ll_ptr.o(.text) refers to _printf_intcommon.o(.text) for _printf_int_common
    _printf_hex_int_ll_ptr.o(.text) refers to _printf_hex_int_ll_ptr.o(.constdata) for .constdata
    __printf_flags.o(.text) refers to _printf_percent.o(.ARM.Collect$$_printf_percent$$00000000) for _printf_percent
    __printf_flags.o(.text) refers to __printf_flags.o(.constdata) for .constdata
    __printf_ss.o(.text) refers to _printf_percent.o(.ARM.Collect$$_printf_percent$$00000000) for _printf_percent
    __printf_flags_ss.o(.text) refers to _printf_percent.o(.ARM.Collect$$_printf_percent$$00000000) for _printf_percent
    __printf_flags_ss.o(.text) refers to __printf_flags_ss.o(.constdata) for .constdata
    __printf_wp.o(.text) refers to __printf_wp.o(i._is_digit) for _is_digit
    __printf_wp.o(.text) refers to _printf_percent.o(.ARM.Collect$$_printf_percent$$00000000) for _printf_percent
    __printf_flags_wp.o(.text) refers to __printf_wp.o(i._is_digit) for _is_digit
    __printf_flags_wp.o(.text) refers to _printf_percent.o(.ARM.Collect$$_printf_percent$$00000000) for _printf_percent
    __printf_flags_wp.o(.text) refers to __printf_flags_wp.o(.constdata) for .constdata
    __printf_ss_wp.o(.text) refers to __printf_wp.o(i._is_digit) for _is_digit
    __printf_ss_wp.o(.text) refers to _printf_percent.o(.ARM.Collect$$_printf_percent$$00000000) for _printf_percent
    __printf_flags_ss_wp.o(.text) refers to __printf_wp.o(i._is_digit) for _is_digit
    __printf_flags_ss_wp.o(.text) refers to _printf_percent.o(.ARM.Collect$$_printf_percent$$00000000) for _printf_percent
    __printf_flags_ss_wp.o(.text) refers to __printf_flags_ss_wp.o(.constdata) for .constdata
    _printf_x.o(.ARM.Collect$$_printf_percent$$0000000C) refers (Weak) to _printf_hex_int.o(.text) for _printf_int_hex
    _printf_d.o(.ARM.Collect$$_printf_percent$$00000009) refers (Weak) to _printf_dec.o(.text) for _printf_int_dec
    _printf_percent.o(.ARM.Collect$$_printf_percent$$00000000) refers (Special) to _printf_percent_end.o(.ARM.Collect$$_printf_percent$$00000017) for _printf_percent_end
    rt_memclr.o(.text) refers to rt_memclr_w.o(.text) for _memset_w
    __main.o(!!!main) refers to __rtentry.o(.ARM.Collect$$rtentry$$00000000) for __rt_entry
    dleqf.o(x$fpl$dleqf) refers (Special) to usenofp.o(x$fpl$usenofp) for __I$use$fp
    dleqf.o(x$fpl$dleqf) refers to dnaninf.o(x$fpl$dnaninf) for __fpl_dnaninf
    dleqf.o(x$fpl$dleqf) refers to dcmpi.o(x$fpl$dcmpinf) for __fpl_dcmp_Inf
    drleqf.o(x$fpl$drleqf) refers (Special) to usenofp.o(x$fpl$usenofp) for __I$use$fp
    drleqf.o(x$fpl$drleqf) refers to dleqf.o(x$fpl$dleqf) for __fpl_dcmple_InfNaN
    f2d.o(x$fpl$f2d) refers (Special) to usenofp.o(x$fpl$usenofp) for __I$use$fp
    f2d.o(x$fpl$f2d) refers to fnaninf.o(x$fpl$fnaninf) for __fpl_fnaninf
    f2d.o(x$fpl$f2d) refers to dretinf.o(x$fpl$dretinf) for __fpl_dretinf
    faddsub_clz.o(x$fpl$fadd) refers (Special) to usenofp.o(x$fpl$usenofp) for __I$use$fp
    faddsub_clz.o(x$fpl$fadd) refers to faddsub_clz.o(x$fpl$fsub) for _fsub1
    faddsub_clz.o(x$fpl$fadd) refers to fretinf.o(x$fpl$fretinf) for __fpl_fretinf
    faddsub_clz.o(x$fpl$fadd) refers to fnaninf.o(x$fpl$fnaninf) for __fpl_fnaninf
    faddsub_clz.o(x$fpl$frsb) refers (Special) to usenofp.o(x$fpl$usenofp) for __I$use$fp
    faddsub_clz.o(x$fpl$frsb) refers to faddsub_clz.o(x$fpl$fadd) for _fadd1
    faddsub_clz.o(x$fpl$frsb) refers to faddsub_clz.o(x$fpl$fsub) for _fsub1
    faddsub_clz.o(x$fpl$fsub) refers (Special) to usenofp.o(x$fpl$usenofp) for __I$use$fp
    faddsub_clz.o(x$fpl$fsub) refers to faddsub_clz.o(x$fpl$fadd) for _fadd1
    faddsub_clz.o(x$fpl$fsub) refers to fnaninf.o(x$fpl$fnaninf) for __fpl_fnaninf
    ffix.o(x$fpl$ffix) refers (Special) to usenofp.o(x$fpl$usenofp) for __I$use$fp
    ffix.o(x$fpl$ffix) refers to fnaninf.o(x$fpl$fnaninf) for __fpl_fnaninf
    ffix.o(x$fpl$ffixr) refers (Special) to usenofp.o(x$fpl$usenofp) for __I$use$fp
    ffix.o(x$fpl$ffixr) refers to fnaninf.o(x$fpl$fnaninf) for __fpl_fnaninf
    fflt_clz.o(x$fpl$ffltu) refers (Special) to usenofp.o(x$fpl$usenofp) for __I$use$fp
    fflt_clz.o(x$fpl$fflt) refers (Special) to usenofp.o(x$fpl$usenofp) for __I$use$fp
    fflt_clz.o(x$fpl$ffltn) refers (Special) to usenofp.o(x$fpl$usenofp) for __I$use$fp
    fmul.o(x$fpl$fmul) refers (Special) to usenofp.o(x$fpl$usenofp) for __I$use$fp
    fmul.o(x$fpl$fmul) refers to fretinf.o(x$fpl$fretinf) for __fpl_fretinf
    fmul.o(x$fpl$fmul) refers to fnaninf.o(x$fpl$fnaninf) for __fpl_fnaninf
    __rtentry.o(.ARM.Collect$$rtentry$$00000000) refers (Special) to __rtentry2.o(.ARM.Collect$$rtentry$$0000000A) for __rt_entry_li
    __rtentry.o(.ARM.Collect$$rtentry$$00000000) refers (Special) to __rtentry2.o(.ARM.Collect$$rtentry$$0000000D) for __rt_entry_main
    __rtentry.o(.ARM.Collect$$rtentry$$00000000) refers (Special) to __rtentry2.o(.ARM.Collect$$rtentry$$0000000C) for __rt_entry_postli_1
    __rtentry.o(.ARM.Collect$$rtentry$$00000000) refers (Special) to __rtentry2.o(.ARM.Collect$$rtentry$$00000009) for __rt_entry_postsh_1
    __rtentry.o(.ARM.Collect$$rtentry$$00000000) refers (Special) to __rtentry2.o(.ARM.Collect$$rtentry$$00000002) for __rt_entry_presh_1
    __rtentry.o(.ARM.Collect$$rtentry$$00000000) refers (Special) to __rtentry4.o(.ARM.Collect$$rtentry$$00000004) for __rt_entry_sh
    _printf_intcommon.o(.text) refers (Weak) to _printf_pad.o(.text) for _printf_pre_padding
    _printf_intcommon.o(.text) refers (Weak) to _printf_pad.o(.text) for _printf_pre_padding
    _printf_intcommon.o(.text) refers (Weak) to _printf_pad.o(.text) for _printf_post_padding
    _printf_char_common.o(.text) refers to __printf_flags_wp.o(.text) for __printf
    dcmpi.o(x$fpl$dcmpinf) refers (Special) to usenofp.o(x$fpl$usenofp) for __I$use$fp
    dnaninf.o(x$fpl$dnaninf) refers (Special) to usenofp.o(x$fpl$usenofp) for __I$use$fp
    dretinf.o(x$fpl$dretinf) refers (Special) to usenofp.o(x$fpl$usenofp) for __I$use$fp
    fnaninf.o(x$fpl$fnaninf) refers (Special) to usenofp.o(x$fpl$usenofp) for __I$use$fp
    fretinf.o(x$fpl$fretinf) refers (Special) to usenofp.o(x$fpl$usenofp) for __I$use$fp
    __rtentry2.o(.ARM.Collect$$rtentry$$00000008) refers to boardinit2.o(.text) for _platform_post_stackheap_init
    __rtentry2.o(.ARM.Collect$$rtentry$$0000000A) refers to libinit.o(.ARM.Collect$$libinit$$00000000) for __rt_lib_init
    __rtentry2.o(.ARM.Collect$$rtentry$$0000000B) refers to boardinit3.o(.text) for _platform_post_lib_init
    __rtentry2.o(.ARM.Collect$$rtentry$$0000000D) refers to main.o(.text) for main
    __rtentry2.o(.ARM.Collect$$rtentry$$0000000D) refers to exit.o(.text) for exit
    __rtentry2.o(.ARM.exidx) refers to __rtentry2.o(.ARM.Collect$$rtentry$$00000001) for .ARM.Collect$$rtentry$$00000001
    __rtentry2.o(.ARM.exidx) refers to __rtentry2.o(.ARM.Collect$$rtentry$$00000008) for .ARM.Collect$$rtentry$$00000008
    __rtentry2.o(.ARM.exidx) refers to __rtentry2.o(.ARM.Collect$$rtentry$$0000000A) for .ARM.Collect$$rtentry$$0000000A
    __rtentry2.o(.ARM.exidx) refers to __rtentry2.o(.ARM.Collect$$rtentry$$0000000B) for .ARM.Collect$$rtentry$$0000000B
    __rtentry2.o(.ARM.exidx) refers to __rtentry2.o(.ARM.Collect$$rtentry$$0000000D) for .ARM.Collect$$rtentry$$0000000D
    __rtentry4.o(.ARM.Collect$$rtentry$$00000004) refers to sys_stackheap_outer.o(.text) for __user_setup_stackheap
    __rtentry4.o(.ARM.exidx) refers to __rtentry4.o(.ARM.Collect$$rtentry$$00000004) for .ARM.Collect$$rtentry$$00000004
    sys_stackheap_outer.o(.text) refers to libspace.o(.text) for __user_perproc_libspace
    sys_stackheap_outer.o(.text) refers to stm32f10x.o(.text) for __user_initial_stackheap
    exit.o(.text) refers to rtexit.o(.ARM.Collect$$rtexit$$00000000) for __rt_exit
    libinit.o(.ARM.Collect$$libinit$$00000000) refers (Special) to libinit2.o(.ARM.Collect$$libinit$$0000002E) for __rt_lib_init_alloca_1
    libinit.o(.ARM.Collect$$libinit$$00000000) refers (Special) to libinit2.o(.ARM.Collect$$libinit$$0000002C) for __rt_lib_init_argv_1
    libinit.o(.ARM.Collect$$libinit$$00000000) refers (Special) to libinit2.o(.ARM.Collect$$libinit$$0000001B) for __rt_lib_init_atexit_1
    libinit.o(.ARM.Collect$$libinit$$00000000) refers (Special) to libinit2.o(.ARM.Collect$$libinit$$00000021) for __rt_lib_init_clock_1
    libinit.o(.ARM.Collect$$libinit$$00000000) refers (Special) to libinit2.o(.ARM.Collect$$libinit$$00000032) for __rt_lib_init_cpp_1
    libinit.o(.ARM.Collect$$libinit$$00000000) refers (Special) to libinit2.o(.ARM.Collect$$libinit$$00000030) for __rt_lib_init_exceptions_1
    libinit.o(.ARM.Collect$$libinit$$00000000) refers (Special) to libinit2.o(.ARM.Collect$$libinit$$00000002) for __rt_lib_init_fp_1
    libinit.o(.ARM.Collect$$libinit$$00000000) refers (Special) to libinit2.o(.ARM.Collect$$libinit$$0000001F) for __rt_lib_init_fp_trap_1
    libinit.o(.ARM.Collect$$libinit$$00000000) refers (Special) to libinit2.o(.ARM.Collect$$libinit$$00000023) for __rt_lib_init_getenv_1
    libinit.o(.ARM.Collect$$libinit$$00000000) refers (Special) to libinit2.o(.ARM.Collect$$libinit$$0000000A) for __rt_lib_init_heap_1
    libinit.o(.ARM.Collect$$libinit$$00000000) refers (Special) to libinit2.o(.ARM.Collect$$libinit$$00000011) for __rt_lib_init_lc_collate_1
    libinit.o(.ARM.Collect$$libinit$$00000000) refers (Special) to libinit2.o(.ARM.Collect$$libinit$$00000013) for __rt_lib_init_lc_ctype_1
    libinit.o(.ARM.Collect$$libinit$$00000000) refers (Special) to libinit2.o(.ARM.Collect$$libinit$$00000015) for __rt_lib_init_lc_monetary_1
    libinit.o(.ARM.Collect$$libinit$$00000000) refers (Special) to libinit2.o(.ARM.Collect$$libinit$$00000017) for __rt_lib_init_lc_numeric_1
    libinit.o(.ARM.Collect$$libinit$$00000000) refers (Special) to libinit2.o(.ARM.Collect$$libinit$$00000019) for __rt_lib_init_lc_time_1
    libinit.o(.ARM.Collect$$libinit$$00000000) refers (Special) to libinit2.o(.ARM.Collect$$libinit$$00000004) for __rt_lib_init_preinit_1
    libinit.o(.ARM.Collect$$libinit$$00000000) refers (Special) to libinit2.o(.ARM.Collect$$libinit$$0000000E) for __rt_lib_init_rand_1
    libinit.o(.ARM.Collect$$libinit$$00000000) refers (Special) to libinit2.o(.ARM.Collect$$libinit$$00000033) for __rt_lib_init_return
    libinit.o(.ARM.Collect$$libinit$$00000000) refers (Special) to libinit2.o(.ARM.Collect$$libinit$$0000001D) for __rt_lib_init_signal_1
    libinit.o(.ARM.Collect$$libinit$$00000000) refers (Special) to libinit2.o(.ARM.Collect$$libinit$$00000025) for __rt_lib_init_stdio_1
    libinit.o(.ARM.Collect$$libinit$$00000000) refers (Special) to libinit2.o(.ARM.Collect$$libinit$$0000000C) for __rt_lib_init_user_alloc_1
    libspace.o(.text) refers to libspace.o(.bss) for __libspace_start
    rtexit.o(.ARM.Collect$$rtexit$$00000000) refers (Special) to rtexit2.o(.ARM.Collect$$rtexit$$00000004) for __rt_exit_exit
    rtexit.o(.ARM.Collect$$rtexit$$00000000) refers (Special) to rtexit2.o(.ARM.Collect$$rtexit$$00000003) for __rt_exit_ls
    rtexit.o(.ARM.Collect$$rtexit$$00000000) refers (Special) to rtexit2.o(.ARM.Collect$$rtexit$$00000002) for __rt_exit_prels_1
    rtexit.o(.ARM.exidx) refers (Special) to rtexit2.o(.ARM.Collect$$rtexit$$00000004) for __rt_exit_exit
    rtexit.o(.ARM.exidx) refers (Special) to rtexit2.o(.ARM.Collect$$rtexit$$00000003) for __rt_exit_ls
    rtexit.o(.ARM.exidx) refers (Special) to rtexit2.o(.ARM.Collect$$rtexit$$00000002) for __rt_exit_prels_1
    rtexit.o(.ARM.exidx) refers to rtexit.o(.ARM.Collect$$rtexit$$00000000) for .ARM.Collect$$rtexit$$00000000
    libinit2.o(.ARM.Collect$$libinit$$00000010) refers to libinit2.o(.ARM.Collect$$libinit$$0000000F) for .ARM.Collect$$libinit$$0000000F
    libinit2.o(.ARM.Collect$$libinit$$00000012) refers to libinit2.o(.ARM.Collect$$libinit$$0000000F) for .ARM.Collect$$libinit$$0000000F
    libinit2.o(.ARM.Collect$$libinit$$00000014) refers to libinit2.o(.ARM.Collect$$libinit$$0000000F) for .ARM.Collect$$libinit$$0000000F
    libinit2.o(.ARM.Collect$$libinit$$00000016) refers to libinit2.o(.ARM.Collect$$libinit$$0000000F) for .ARM.Collect$$libinit$$0000000F
    libinit2.o(.ARM.Collect$$libinit$$00000018) refers to libinit2.o(.ARM.Collect$$libinit$$0000000F) for .ARM.Collect$$libinit$$0000000F
    libinit2.o(.ARM.Collect$$libinit$$00000026) refers to argv_veneer.o(.emb_text) for __ARM_argv_veneer
    libinit2.o(.ARM.Collect$$libinit$$00000027) refers to argv_veneer.o(.emb_text) for __ARM_argv_veneer
    rtexit2.o(.ARM.Collect$$rtexit$$00000003) refers to libshutdown.o(.ARM.Collect$$libshutdown$$00000000) for __rt_lib_shutdown
    rtexit2.o(.ARM.Collect$$rtexit$$00000004) refers to sys_exit.o(.text) for _sys_exit
    rtexit2.o(.ARM.exidx) refers to rtexit2.o(.ARM.Collect$$rtexit$$00000001) for .ARM.Collect$$rtexit$$00000001
    rtexit2.o(.ARM.exidx) refers to rtexit2.o(.ARM.Collect$$rtexit$$00000003) for .ARM.Collect$$rtexit$$00000003
    rtexit2.o(.ARM.exidx) refers to rtexit2.o(.ARM.Collect$$rtexit$$00000004) for .ARM.Collect$$rtexit$$00000004
    argv_veneer.o(.emb_text) refers to no_argv.o(.text) for __ARM_get_argv
    sys_exit.o(.text) refers (Special) to use_no_semi.o(.text) for __I$use$semihosting
    sys_exit.o(.text) refers (Special) to indicate_semi.o(.text) for __semihosting_library_function
    _get_argv_nomalloc.o(.text) refers (Special) to hrguard.o(.text) for __heap_region$guard
    _get_argv_nomalloc.o(.text) refers to defsig_rtmem_outer.o(.text) for __rt_SIGRTMEM
    _get_argv_nomalloc.o(.text) refers to sys_command.o(.text) for _sys_command_string
    libshutdown.o(.ARM.Collect$$libshutdown$$00000000) refers (Special) to libshutdown2.o(.ARM.Collect$$libshutdown$$00000006) for __rt_lib_shutdown_fp_trap_1
    libshutdown.o(.ARM.Collect$$libshutdown$$00000000) refers (Special) to libshutdown2.o(.ARM.Collect$$libshutdown$$0000000E) for __rt_lib_shutdown_heap_1
    libshutdown.o(.ARM.Collect$$libshutdown$$00000000) refers (Special) to libshutdown2.o(.ARM.Collect$$libshutdown$$0000000F) for __rt_lib_shutdown_return
    libshutdown.o(.ARM.Collect$$libshutdown$$00000000) refers (Special) to libshutdown2.o(.ARM.Collect$$libshutdown$$00000009) for __rt_lib_shutdown_signal_1
    libshutdown.o(.ARM.Collect$$libshutdown$$00000000) refers (Special) to libshutdown2.o(.ARM.Collect$$libshutdown$$00000003) for __rt_lib_shutdown_stdio_1
    libshutdown.o(.ARM.Collect$$libshutdown$$00000000) refers (Special) to libshutdown2.o(.ARM.Collect$$libshutdown$$0000000B) for __rt_lib_shutdown_user_alloc_1
    sys_command.o(.text) refers (Special) to use_no_semi.o(.text) for __I$use$semihosting
    sys_command.o(.text) refers (Special) to indicate_semi.o(.text) for __semihosting_library_function
    defsig_rtmem_outer.o(.text) refers to defsig_rtmem_inner.o(.text) for __rt_SIGRTMEM_inner
    defsig_rtmem_outer.o(.text) refers to defsig_exit.o(.text) for __sig_exit
    defsig_rtmem_formal.o(.text) refers to rt_raise.o(.text) for __rt_raise
    rt_raise.o(.text) refers to __raise.o(.text) for __raise
    rt_raise.o(.text) refers to sys_exit.o(.text) for _sys_exit
    defsig_exit.o(.text) refers to sys_exit.o(.text) for _sys_exit
    defsig_rtmem_inner.o(.text) refers to defsig_general.o(.text) for __default_signal_display
    __raise.o(.text) refers to defsig.o(CL$$defsig) for __default_signal_handler
    defsig_general.o(.text) refers to sys_wrch.o(.text) for _ttywrch
    sys_wrch.o(.text) refers (Special) to use_no_semi.o(.text) for __I$use$semihosting
    sys_wrch.o(.text) refers (Special) to indicate_semi.o(.text) for __semihosting_library_function
    defsig.o(CL$$defsig) refers to defsig_rtmem_inner.o(.text) for __rt_SIGRTMEM_inner
    defsig_abrt_inner.o(.text) refers to defsig_general.o(.text) for __default_signal_display
    defsig_fpe_inner.o(.text) refers to defsig_general.o(.text) for __default_signal_display
    defsig_rtred_inner.o(.text) refers to defsig_general.o(.text) for __default_signal_display
    defsig_stak_inner.o(.text) refers to defsig_general.o(.text) for __default_signal_display
    defsig_pvfn_inner.o(.text) refers to defsig_general.o(.text) for __default_signal_display
    defsig_cppl_inner.o(.text) refers to defsig_general.o(.text) for __default_signal_display
    defsig_segv_inner.o(.text) refers to defsig_general.o(.text) for __default_signal_display
    defsig_other.o(.text) refers to defsig_general.o(.text) for __default_signal_display


==============================================================================

Removing Unused input sections from the image.

    Removing time.o(.text), (664 bytes).
    Removing delay.o(.constdata), (4 bytes).
    Removing led.o(.text), (152 bytes).
    Removing spiflash.o(.data), (2 bytes).
    Removing os_dbg.o(.constdata), (2 bytes).
    Removing main.o(.emb_text), (14 bytes).
    Removing stm32f10x_adc.o(.text), (1102 bytes).
    Removing stm32f10x_dma.o(.text), (596 bytes).
    Removing stm32f10x_exti.o(.text), (284 bytes).
    Removing stm32f10x_fsmc.o(.text), (1548 bytes).
    Removing stm32f10x_sdio.o(.text), (468 bytes).
    Removing stm32f10x_tim.o(.text), (3610 bytes).

12 unused section(s) (total 8446 bytes) removed from the image.

==============================================================================

Image Symbol Table

    Local Symbols

    Symbol Name                              Value     Ov Type        Size  Object(Section)

    ../clib/angel/boardlib.s                 0x00000000   Number         0  boardinit3.o ABSOLUTE
    ../clib/angel/boardlib.s                 0x00000000   Number         0  boardinit2.o ABSOLUTE
    ../clib/angel/boardlib.s                 0x00000000   Number         0  boardinit1.o ABSOLUTE
    ../clib/angel/boardlib.s                 0x00000000   Number         0  boardshut.o ABSOLUTE
    ../clib/angel/dczerorl2.s                0x00000000   Number         0  __dczerorl2.o ABSOLUTE
    ../clib/angel/handlers.s                 0x00000000   Number         0  __scatter_zi.o ABSOLUTE
    ../clib/angel/kernel.s                   0x00000000   Number         0  rtexit2.o ABSOLUTE
    ../clib/angel/kernel.s                   0x00000000   Number         0  rtexit.o ABSOLUTE
    ../clib/angel/kernel.s                   0x00000000   Number         0  __rtentry.o ABSOLUTE
    ../clib/angel/kernel.s                   0x00000000   Number         0  __rtentry2.o ABSOLUTE
    ../clib/angel/kernel.s                   0x00000000   Number         0  __rtentry4.o ABSOLUTE
    ../clib/angel/rt.s                       0x00000000   Number         0  rt_raise.o ABSOLUTE
    ../clib/angel/scatter.s                  0x00000000   Number         0  __scatter.o ABSOLUTE
    ../clib/angel/startup.s                  0x00000000   Number         0  __main.o ABSOLUTE
    ../clib/angel/sys.s                      0x00000000   Number         0  sys_stackheap_outer.o ABSOLUTE
    ../clib/angel/sys.s                      0x00000000   Number         0  indicate_semi.o ABSOLUTE
    ../clib/angel/sys.s                      0x00000000   Number         0  libspace.o ABSOLUTE
    ../clib/angel/sys.s                      0x00000000   Number         0  use_no_semi.o ABSOLUTE
    ../clib/angel/sysapp.c                   0x00000000   Number         0  sys_wrch.o ABSOLUTE
    ../clib/angel/sysapp.c                   0x00000000   Number         0  sys_command.o ABSOLUTE
    ../clib/angel/sysapp.c                   0x00000000   Number         0  sys_exit.o ABSOLUTE
    ../clib/armsys.c                         0x00000000   Number         0  _get_argv_nomalloc.o ABSOLUTE
    ../clib/armsys.c                         0x00000000   Number         0  argv_veneer.o ABSOLUTE
    ../clib/armsys.c                         0x00000000   Number         0  no_argv.o ABSOLUTE
    ../clib/armsys.c                         0x00000000   Number         0  argv_veneer.o ABSOLUTE
    ../clib/heapalloc.c                      0x00000000   Number         0  hrguard.o ABSOLUTE
    ../clib/heapaux.c                        0x00000000   Number         0  heapauxi.o ABSOLUTE
    ../clib/libinit.s                        0x00000000   Number         0  libshutdown2.o ABSOLUTE
    ../clib/libinit.s                        0x00000000   Number         0  libshutdown.o ABSOLUTE
    ../clib/libinit.s                        0x00000000   Number         0  libinit2.o ABSOLUTE
    ../clib/libinit.s                        0x00000000   Number         0  libinit.o ABSOLUTE
    ../clib/memcpset.s                       0x00000000   Number         0  rt_memclr_w.o ABSOLUTE
    ../clib/memcpset.s                       0x00000000   Number         0  rt_memclr.o ABSOLUTE
    ../clib/memcpset.s                       0x00000000   Number         0  rt_memcpy_w.o ABSOLUTE
    ../clib/misc.s                           0x00000000   Number         0  printf_stubs.o ABSOLUTE
    ../clib/printf.c                         0x00000000   Number         0  _printf_hex_ll_ptr.o ABSOLUTE
    ../clib/printf.c                         0x00000000   Number         0  _printf_hex_ptr.o ABSOLUTE
    ../clib/printf.c                         0x00000000   Number         0  _printf_hex_int_ptr.o ABSOLUTE
    ../clib/printf.c                         0x00000000   Number         0  _printf_hex_int_ll.o ABSOLUTE
    ../clib/printf.c                         0x00000000   Number         0  _printf_hex_int.o ABSOLUTE
    ../clib/printf.c                         0x00000000   Number         0  _printf_hex_ll.o ABSOLUTE
    ../clib/printf.c                         0x00000000   Number         0  _printf_dec.o ABSOLUTE
    ../clib/printf.c                         0x00000000   Number         0  __printf_nopercent.o ABSOLUTE
    ../clib/printf.c                         0x00000000   Number         0  _printf_pad.o ABSOLUTE
    ../clib/printf.c                         0x00000000   Number         0  __printf.o ABSOLUTE
    ../clib/printf.c                         0x00000000   Number         0  noretval__2sprintf.o ABSOLUTE
    ../clib/printf.c                         0x00000000   Number         0  __2sprintf.o ABSOLUTE
    ../clib/printf.c                         0x00000000   Number         0  _sputc.o ABSOLUTE
    ../clib/printf.c                         0x00000000   Number         0  _printf_char_common.o ABSOLUTE
    ../clib/printf.c                         0x00000000   Number         0  _printf_intcommon.o ABSOLUTE
    ../clib/printf.c                         0x00000000   Number         0  __printf_flags_ss_wp.o ABSOLUTE
    ../clib/printf.c                         0x00000000   Number         0  __printf_ss_wp.o ABSOLUTE
    ../clib/printf.c                         0x00000000   Number         0  __printf_flags_wp.o ABSOLUTE
    ../clib/printf.c                         0x00000000   Number         0  __printf_wp.o ABSOLUTE
    ../clib/printf.c                         0x00000000   Number         0  __printf_flags_ss.o ABSOLUTE
    ../clib/printf.c                         0x00000000   Number         0  __printf_ss.o ABSOLUTE
    ../clib/printf.c                         0x00000000   Number         0  __printf_flags.o ABSOLUTE
    ../clib/printf.c                         0x00000000   Number         0  _printf_hex_int_ll_ptr.o ABSOLUTE
    ../clib/printf_percent.s                 0x00000000   Number         0  _printf_percent_end.o ABSOLUTE
    ../clib/printf_percent.s                 0x00000000   Number         0  _printf_d.o ABSOLUTE
    ../clib/printf_percent.s                 0x00000000   Number         0  _printf_x.o ABSOLUTE
    ../clib/printf_percent.s                 0x00000000   Number         0  _printf_percent.o ABSOLUTE
    ../clib/signal.c                         0x00000000   Number         0  defsig_rtmem_outer.o ABSOLUTE
    ../clib/signal.c                         0x00000000   Number         0  defsig_rtmem_formal.o ABSOLUTE
    ../clib/signal.c                         0x00000000   Number         0  defsig_exit.o ABSOLUTE
    ../clib/signal.c                         0x00000000   Number         0  defsig_general.o ABSOLUTE
    ../clib/signal.c                         0x00000000   Number         0  __raise.o ABSOLUTE
    ../clib/signal.c                         0x00000000   Number         0  defsig_rtmem_inner.o ABSOLUTE
    ../clib/signal.c                         0x00000000   Number         0  defsig_cppl_inner.o ABSOLUTE
    ../clib/signal.c                         0x00000000   Number         0  defsig_pvfn_inner.o ABSOLUTE
    ../clib/signal.c                         0x00000000   Number         0  defsig_stak_inner.o ABSOLUTE
    ../clib/signal.c                         0x00000000   Number         0  defsig_rtred_inner.o ABSOLUTE
    ../clib/signal.c                         0x00000000   Number         0  defsig_fpe_inner.o ABSOLUTE
    ../clib/signal.c                         0x00000000   Number         0  defsig_abrt_inner.o ABSOLUTE
    ../clib/signal.c                         0x00000000   Number         0  defsig_other.o ABSOLUTE
    ../clib/signal.c                         0x00000000   Number         0  defsig_segv_inner.o ABSOLUTE
    ../clib/signal.s                         0x00000000   Number         0  defsig.o ABSOLUTE
    ../clib/stdlib.c                         0x00000000   Number         0  exit.o ABSOLUTE
    ../fplib/dcmpi.s                         0x00000000   Number         0  dcmpi.o ABSOLUTE
    ../fplib/dleqf.s                         0x00000000   Number         0  dleqf.o ABSOLUTE
    ../fplib/dnaninf.s                       0x00000000   Number         0  dnaninf.o ABSOLUTE
    ../fplib/dretinf.s                       0x00000000   Number         0  dretinf.o ABSOLUTE
    ../fplib/drleqf.s                        0x00000000   Number         0  drleqf.o ABSOLUTE
    ../fplib/f2d.s                           0x00000000   Number         0  f2d.o ABSOLUTE
    ../fplib/faddsub.s                       0x00000000   Number         0  faddsub_clz.o ABSOLUTE
    ../fplib/ffix.s                          0x00000000   Number         0  ffix.o ABSOLUTE
    ../fplib/fflt.s                          0x00000000   Number         0  fflt_clz.o ABSOLUTE
    ../fplib/fmul.s                          0x00000000   Number         0  fmul.o ABSOLUTE
    ../fplib/fnaninf.s                       0x00000000   Number         0  fnaninf.o ABSOLUTE
    ../fplib/fpinit.s                        0x00000000   Number         0  fpinit.o ABSOLUTE
    ../fplib/fretinf.s                       0x00000000   Number         0  fretinf.o ABSOLUTE
    ../fplib/usenofp.s                       0x00000000   Number         0  usenofp.o ABSOLUTE
    ..\MZ_Sys\Tasks\AirIap.c                 0x00000000   Number         0  airiap.o ABSOLUTE
    ..\MZ_Sys\Tasks\WirelessComm.c           0x00000000   Number         0  wirelesscomm.o ABSOLUTE
    ..\MZ_Sys\Tasks\Wlan4GComm.c             0x00000000   Number         0  wlan4gcomm.o ABSOLUTE
    Drivers\Delay.c                          0x00000000   Number         0  delay.o ABSOLUTE
    Drivers\Lib\core_cm3.c                   0x00000000   Number         0  core_cm3.o ABSOLUTE
    Drivers\Lib\src\misc.c                   0x00000000   Number         0  misc.o ABSOLUTE
    Drivers\Lib\src\stm32f10x_adc.c          0x00000000   Number         0  stm32f10x_adc.o ABSOLUTE
    Drivers\Lib\src\stm32f10x_bkp.c          0x00000000   Number         0  stm32f10x_bkp.o ABSOLUTE
    Drivers\Lib\src\stm32f10x_dma.c          0x00000000   Number         0  stm32f10x_dma.o ABSOLUTE
    Drivers\Lib\src\stm32f10x_exti.c         0x00000000   Number         0  stm32f10x_exti.o ABSOLUTE
    Drivers\Lib\src\stm32f10x_flash.c        0x00000000   Number         0  stm32f10x_flash.o ABSOLUTE
    Drivers\Lib\src\stm32f10x_fsmc.c         0x00000000   Number         0  stm32f10x_fsmc.o ABSOLUTE
    Drivers\Lib\src\stm32f10x_gpio.c         0x00000000   Number         0  stm32f10x_gpio.o ABSOLUTE
    Drivers\Lib\src\stm32f10x_iwdg.c         0x00000000   Number         0  stm32f10x_iwdg.o ABSOLUTE
    Drivers\Lib\src\stm32f10x_pwr.c          0x00000000   Number         0  stm32f10x_pwr.o ABSOLUTE
    Drivers\Lib\src\stm32f10x_rcc.c          0x00000000   Number         0  stm32f10x_rcc.o ABSOLUTE
    Drivers\Lib\src\stm32f10x_rtc.c          0x00000000   Number         0  stm32f10x_rtc.o ABSOLUTE
    Drivers\Lib\src\stm32f10x_sdio.c         0x00000000   Number         0  stm32f10x_sdio.o ABSOLUTE
    Drivers\Lib\src\stm32f10x_spi.c          0x00000000   Number         0  stm32f10x_spi.o ABSOLUTE
    Drivers\Lib\src\stm32f10x_tim.c          0x00000000   Number         0  stm32f10x_tim.o ABSOLUTE
    Drivers\Lib\src\stm32f10x_usart.c        0x00000000   Number         0  stm32f10x_usart.o ABSOLUTE
    Drivers\Lib\stm32f10x_it.c               0x00000000   Number         0  stm32f10x_it.o ABSOLUTE
    Drivers\Rtc.c                            0x00000000   Number         0  rtc.o ABSOLUTE
    Drivers\Time.c                           0x00000000   Number         0  time.o ABSOLUTE
    Drivers\Uart.c                           0x00000000   Number         0  uart.o ABSOLUTE
    Drivers\\Lib\\core_cm3.c                 0x00000000   Number         0  core_cm3.o ABSOLUTE
    Drivers\flash.c                          0x00000000   Number         0  flash.o ABSOLUTE
    Drivers\led.c                            0x00000000   Number         0  led.o ABSOLUTE
    Drivers\spi.c                            0x00000000   Number         0  spi.o ABSOLUTE
    Drivers\spiFlash.c                       0x00000000   Number         0  spiflash.o ABSOLUTE
    Drivers\wdg.c                            0x00000000   Number         0  wdg.o ABSOLUTE
    MZ_Sys\Dispatcher.c                      0x00000000   Number         0  dispatcher.o ABSOLUTE
    MZ_Sys\DisplayProtocol.c                 0x00000000   Number         0  displayprotocol.o ABSOLUTE
    MZ_Sys\SystemInit.c                      0x00000000   Number         0  systeminit.o ABSOLUTE
    MZ_Sys\Tasks\WirelessApp.c               0x00000000   Number         0  wirelessapp.o ABSOLUTE
    MZ_Sys\Tasks\Wlan4GApp.c                 0x00000000   Number         0  wlan4gapp.o ABSOLUTE
    Pages\Page10TowersOut.c                  0x00000000   Number         0  page10towersout.o ABSOLUTE
    Pages\Page11TowersOutConfig.c            0x00000000   Number         0  page11towersoutconfig.o ABSOLUTE
    Pages\Page12S1S2Control.c                0x00000000   Number         0  page12s1s2control.o ABSOLUTE
    Pages\Page13LinkConfig .c                0x00000000   Number         0  page13linkconfig .o ABSOLUTE
    Pages\Page14W1Control.c                  0x00000000   Number         0  page14w1control.o ABSOLUTE
    Pages\Page15W2Control.c                  0x00000000   Number         0  page15w2control.o ABSOLUTE
    Pages\Page16E1E2Control.c                0x00000000   Number         0  page16e1e2control.o ABSOLUTE
    Pages\Page17C1Control.c                  0x00000000   Number         0  page17c1control.o ABSOLUTE
    Pages\Page18C2Control.c                  0x00000000   Number         0  page18c2control.o ABSOLUTE
    Pages\Page19N1Control.c                  0x00000000   Number         0  page19n1control.o ABSOLUTE
    Pages\Page1FlinePathConfig.c             0x00000000   Number         0  page1flinepathconfig.o ABSOLUTE
    Pages\Page20N2Control.c                  0x00000000   Number         0  page20n2control.o ABSOLUTE
    Pages\Page2PathConfig.c                  0x00000000   Number         0  page2pathconfig.o ABSOLUTE
    Pages\Page3FlineDevice.c                 0x00000000   Number         0  page3flinedevice.o ABSOLUTE
    Pages\Page5Revise.c                      0x00000000   Number         0  page5revise.o ABSOLUTE
    Pages\Page6ReadPathConfig.c              0x00000000   Number         0  page6readpathconfig.o ABSOLUTE
    Pages\Page7ControlFline.c                0x00000000   Number         0  page7controlfline.o ABSOLUTE
    Pages\Page8SwitchValve.c                 0x00000000   Number         0  page8switchvalve.o ABSOLUTE
    Pages\Page9SwitchValveConfig.c           0x00000000   Number         0  page9switchvalveconfig.o ABSOLUTE
    Start\STM32F10x.s                        0x00000000   Number         0  stm32f10x.o ABSOLUTE
    UserLib\Os_Wrap.c                        0x00000000   Number         0  os_wrap.o ABSOLUTE
    Utilities\DisplayPara.c                  0x00000000   Number         0  displaypara.o ABSOLUTE
    Utilities\FoodlineControl.c              0x00000000   Number         0  foodlinecontrol.o ABSOLUTE
    Utilities\ParaSettingLib.c               0x00000000   Number         0  parasettinglib.o ABSOLUTE
    Utilities\StateMachine.c                 0x00000000   Number         0  statemachine.o ABSOLUTE
    dc.s                                     0x00000000   Number         0  dc.o ABSOLUTE
    main.c                                   0x00000000   Number         0  main.o ABSOLUTE
    main.c                                   0x00000000   Number         0  main.o ABSOLUTE
    uCos\Cpu\cpu_a.asm                       0x00000000   Number         0  cpu_a.o ABSOLUTE
    uCos\Cpu\cpu_c.c                         0x00000000   Number         0  cpu_c.o ABSOLUTE
    uCos\Ports\os_cpu_a.asm                  0x00000000   Number         0  os_cpu_a.o ABSOLUTE
    uCos\Ports\os_cpu_c.c                    0x00000000   Number         0  os_cpu_c.o ABSOLUTE
    uCos\Ports\os_dbg.c                      0x00000000   Number         0  os_dbg.o ABSOLUTE
    uCos\os_core.c                           0x00000000   Number         0  os_core.o ABSOLUTE
    uCos\os_flag.c                           0x00000000   Number         0  os_flag.o ABSOLUTE
    uCos\os_mbox.c                           0x00000000   Number         0  os_mbox.o ABSOLUTE
    uCos\os_mem.c                            0x00000000   Number         0  os_mem.o ABSOLUTE
    uCos\os_mutex.c                          0x00000000   Number         0  os_mutex.o ABSOLUTE
    uCos\os_q.c                              0x00000000   Number         0  os_q.o ABSOLUTE
    uCos\os_sem.c                            0x00000000   Number         0  os_sem.o ABSOLUTE
    uCos\os_task.c                           0x00000000   Number         0  os_task.o ABSOLUTE
    uCos\os_time.c                           0x00000000   Number         0  os_time.o ABSOLUTE
    uCos\os_tmr.c                            0x00000000   Number         0  os_tmr.o ABSOLUTE
    RESET                                    0x08002800   Section      304  stm32f10x.o(RESET)
    !!!main                                  0x08002930   Section        8  __main.o(!!!main)
    !!!scatter                               0x08002938   Section       52  __scatter.o(!!!scatter)
    !!dczerorl2                              0x0800296c   Section       90  __dczerorl2.o(!!dczerorl2)
    !!handler_zi                             0x080029c8   Section       28  __scatter_zi.o(!!handler_zi)
    .ARM.Collect$$_printf_percent$$00000000  0x080029e4   Section        0  _printf_percent.o(.ARM.Collect$$_printf_percent$$00000000)
    .ARM.Collect$$_printf_percent$$00000009  0x080029e4   Section        6  _printf_d.o(.ARM.Collect$$_printf_percent$$00000009)
    .ARM.Collect$$_printf_percent$$0000000C  0x080029ea   Section        6  _printf_x.o(.ARM.Collect$$_printf_percent$$0000000C)
    .ARM.Collect$$_printf_percent$$00000017  0x080029f0   Section        4  _printf_percent_end.o(.ARM.Collect$$_printf_percent$$00000017)
    .ARM.Collect$$libinit$$00000000          0x080029f4   Section        2  libinit.o(.ARM.Collect$$libinit$$00000000)
    .ARM.Collect$$libinit$$00000002          0x080029f6   Section        0  libinit2.o(.ARM.Collect$$libinit$$00000002)
    .ARM.Collect$$libinit$$00000004          0x080029f6   Section        0  libinit2.o(.ARM.Collect$$libinit$$00000004)
    .ARM.Collect$$libinit$$0000000A          0x080029f6   Section        0  libinit2.o(.ARM.Collect$$libinit$$0000000A)
    .ARM.Collect$$libinit$$0000000C          0x080029f6   Section        0  libinit2.o(.ARM.Collect$$libinit$$0000000C)
    .ARM.Collect$$libinit$$0000000E          0x080029f6   Section        0  libinit2.o(.ARM.Collect$$libinit$$0000000E)
    .ARM.Collect$$libinit$$00000011          0x080029f6   Section        0  libinit2.o(.ARM.Collect$$libinit$$00000011)
    .ARM.Collect$$libinit$$00000013          0x080029f6   Section        0  libinit2.o(.ARM.Collect$$libinit$$00000013)
    .ARM.Collect$$libinit$$00000015          0x080029f6   Section        0  libinit2.o(.ARM.Collect$$libinit$$00000015)
    .ARM.Collect$$libinit$$00000017          0x080029f6   Section        0  libinit2.o(.ARM.Collect$$libinit$$00000017)
    .ARM.Collect$$libinit$$00000019          0x080029f6   Section        0  libinit2.o(.ARM.Collect$$libinit$$00000019)
    .ARM.Collect$$libinit$$0000001B          0x080029f6   Section        0  libinit2.o(.ARM.Collect$$libinit$$0000001B)
    .ARM.Collect$$libinit$$0000001D          0x080029f6   Section        0  libinit2.o(.ARM.Collect$$libinit$$0000001D)
    .ARM.Collect$$libinit$$0000001F          0x080029f6   Section        0  libinit2.o(.ARM.Collect$$libinit$$0000001F)
    .ARM.Collect$$libinit$$00000021          0x080029f6   Section        0  libinit2.o(.ARM.Collect$$libinit$$00000021)
    .ARM.Collect$$libinit$$00000023          0x080029f6   Section        0  libinit2.o(.ARM.Collect$$libinit$$00000023)
    .ARM.Collect$$libinit$$00000025          0x080029f6   Section        0  libinit2.o(.ARM.Collect$$libinit$$00000025)
    .ARM.Collect$$libinit$$0000002C          0x080029f6   Section        0  libinit2.o(.ARM.Collect$$libinit$$0000002C)
    .ARM.Collect$$libinit$$0000002E          0x080029f6   Section        0  libinit2.o(.ARM.Collect$$libinit$$0000002E)
    .ARM.Collect$$libinit$$00000030          0x080029f6   Section        0  libinit2.o(.ARM.Collect$$libinit$$00000030)
    .ARM.Collect$$libinit$$00000032          0x080029f6   Section        0  libinit2.o(.ARM.Collect$$libinit$$00000032)
    .ARM.Collect$$libinit$$00000033          0x080029f6   Section        2  libinit2.o(.ARM.Collect$$libinit$$00000033)
    .ARM.Collect$$libshutdown$$00000000      0x080029f8   Section        2  libshutdown.o(.ARM.Collect$$libshutdown$$00000000)
    .ARM.Collect$$libshutdown$$00000003      0x080029fa   Section        0  libshutdown2.o(.ARM.Collect$$libshutdown$$00000003)
    .ARM.Collect$$libshutdown$$00000006      0x080029fa   Section        0  libshutdown2.o(.ARM.Collect$$libshutdown$$00000006)
    .ARM.Collect$$libshutdown$$00000009      0x080029fa   Section        0  libshutdown2.o(.ARM.Collect$$libshutdown$$00000009)
    .ARM.Collect$$libshutdown$$0000000B      0x080029fa   Section        0  libshutdown2.o(.ARM.Collect$$libshutdown$$0000000B)
    .ARM.Collect$$libshutdown$$0000000E      0x080029fa   Section        0  libshutdown2.o(.ARM.Collect$$libshutdown$$0000000E)
    .ARM.Collect$$libshutdown$$0000000F      0x080029fa   Section        2  libshutdown2.o(.ARM.Collect$$libshutdown$$0000000F)
    .ARM.Collect$$rtentry$$00000000          0x080029fc   Section        0  __rtentry.o(.ARM.Collect$$rtentry$$00000000)
    .ARM.Collect$$rtentry$$00000002          0x080029fc   Section        0  __rtentry2.o(.ARM.Collect$$rtentry$$00000002)
    .ARM.Collect$$rtentry$$00000004          0x080029fc   Section        6  __rtentry4.o(.ARM.Collect$$rtentry$$00000004)
    .ARM.Collect$$rtentry$$00000009          0x08002a02   Section        0  __rtentry2.o(.ARM.Collect$$rtentry$$00000009)
    .ARM.Collect$$rtentry$$0000000A          0x08002a02   Section        4  __rtentry2.o(.ARM.Collect$$rtentry$$0000000A)
    .ARM.Collect$$rtentry$$0000000C          0x08002a06   Section        0  __rtentry2.o(.ARM.Collect$$rtentry$$0000000C)
    .ARM.Collect$$rtentry$$0000000D          0x08002a06   Section        8  __rtentry2.o(.ARM.Collect$$rtentry$$0000000D)
    .ARM.Collect$$rtexit$$00000000           0x08002a0e   Section        2  rtexit.o(.ARM.Collect$$rtexit$$00000000)
    .ARM.Collect$$rtexit$$00000002           0x08002a10   Section        0  rtexit2.o(.ARM.Collect$$rtexit$$00000002)
    .ARM.Collect$$rtexit$$00000003           0x08002a10   Section        4  rtexit2.o(.ARM.Collect$$rtexit$$00000003)
    .ARM.Collect$$rtexit$$00000004           0x08002a14   Section        6  rtexit2.o(.ARM.Collect$$rtexit$$00000004)
    .emb_text                                0x08002a1c   Section       32  core_cm3.o(.emb_text)
    .text                                    0x08002a3c   Section      164  stm32f10x.o(.text)
    Fault_Handler                            0x08002a41   Thumb Code    98  stm32f10x.o(.text)
    .text                                    0x08002ae0   Section        0  rtc.o(.text)
    .text                                    0x08003338   Section        0  uart.o(.text)
    .text                                    0x0800367c   Section        0  flash.o(.text)
    .text                                    0x0800381a   Section        0  delay.o(.text)
    .text                                    0x0800386a   Section        0  wdg.o(.text)
    .text                                    0x08003898   Section        0  spi.o(.text)
    .text                                    0x08003978   Section        0  spiflash.o(.text)
    .text                                    0x08003c18   Section        0  os_core.o(.text)
    OS_InitTaskIdle                          0x08003c35   Thumb Code    18  os_core.o(.text)
    OS_InitEventList                         0x08003c59   Thumb Code    54  os_core.o(.text)
    OS_InitTCBList                           0x08003c8f   Thumb Code    66  os_core.o(.text)
    OS_InitRdyList                           0x08003cd1   Thumb Code    46  os_core.o(.text)
    OS_InitMisc                              0x08003cff   Thumb Code    32  os_core.o(.text)
    OS_SchedNew                              0x08003d57   Thumb Code    26  os_core.o(.text)
    .text                                    0x08004258   Section        0  os_mutex.o(.text)
    OSMutex_RdyAtPrio                        0x08004367   Thumb Code   100  os_mutex.o(.text)
    .text                                    0x08004818   Section        0  os_sem.o(.text)
    .text                                    0x08004bac   Section        0  os_task.o(.text)
    .text                                    0x08005154   Section        0  os_time.o(.text)
    .text                                    0x08005300   Section        0  cpu_c.o(.text)
    .text                                    0x08005838   Section       42  cpu_a.o(.text)
    .text                                    0x08005864   Section      152  os_cpu_a.o(.text)
    .text                                    0x080058fc   Section        0  os_cpu_c.o(.text)
    .text                                    0x080059f0   Section        0  os_mbox.o(.text)
    .text                                    0x08005db8   Section        0  os_q.o(.text)
    .text                                    0x08006388   Section        0  main.o(.text)
    .text                                    0x08006448   Section        0  systeminit.o(.text)
    .text                                    0x080067e0   Section        0  dispatcher.o(.text)
    .text                                    0x08006864   Section        0  wirelessapp.o(.text)
    FindSrcAddrIndex                         0x080068f1   Thumb Code    98  wirelessapp.o(.text)
    IsSeqInRecord                            0x08006953   Thumb Code   136  wirelessapp.o(.text)
    .text                                    0x08007314   Section        0  wlan4gapp.o(.text)
    .text                                    0x080075b4   Section        0  displayprotocol.o(.text)
    .text                                    0x08007d40   Section        0  stm32f10x_it.o(.text)
    .text                                    0x08007fdc   Section        0  misc.o(.text)
    .text                                    0x080080b8   Section        0  stm32f10x_bkp.o(.text)
    .text                                    0x0800817c   Section        0  stm32f10x_flash.o(.text)
    .text                                    0x08008738   Section        0  stm32f10x_gpio.o(.text)
    .text                                    0x08008a94   Section        0  stm32f10x_pwr.o(.text)
    .text                                    0x08008b60   Section        0  stm32f10x_rcc.o(.text)
    .text                                    0x08008f04   Section        0  stm32f10x_rtc.o(.text)
    .text                                    0x0800904c   Section        0  stm32f10x_spi.o(.text)
    .text                                    0x08009358   Section        0  stm32f10x_usart.o(.text)
    .text                                    0x08009760   Section        0  stm32f10x_iwdg.o(.text)
    .text                                    0x080097a0   Section        0  os_wrap.o(.text)
    InsertRecord                             0x080098c7   Thumb Code   214  os_wrap.o(.text)
    DeleteRecord                             0x08009bdd   Thumb Code   262  os_wrap.o(.text)
    MakeHash33                               0x0800a40f   Thumb Code    28  os_wrap.o(.text)
    .text                                    0x0800a484   Section        0  displaypara.o(.text)
    .text                                    0x0800a774   Section        0  parasettinglib.o(.text)
    ParaMassStorageSaveHead                  0x0800a7df   Thumb Code    14  parasettinglib.o(.text)
    ParaMassStorageReadHead                  0x0800a7ed   Thumb Code    14  parasettinglib.o(.text)
    .text                                    0x0800b028   Section        0  foodlinecontrol.o(.text)
    DeviceSendCmd                            0x0800b0e7   Thumb Code   972  foodlinecontrol.o(.text)
    continueControlJudge                     0x0800b89f   Thumb Code   594  foodlinecontrol.o(.text)
    NextEnabled                              0x0800bcb5   Thumb Code    62  foodlinecontrol.o(.text)
    .text                                    0x0800c034   Section        0  statemachine.o(.text)
    StateChange                              0x0800c035   Thumb Code    46  statemachine.o(.text)
    IdleStateEntry                           0x0800c063   Thumb Code    14  statemachine.o(.text)
    IdleStateExit                            0x0800c071   Thumb Code     2  statemachine.o(.text)
    DeviceExistCal                           0x0800c073   Thumb Code   158  statemachine.o(.text)
    DeviceExistCalReady                      0x0800c111   Thumb Code   128  statemachine.o(.text)
    DeviceAlarmCal                           0x0800c191   Thumb Code   192  statemachine.o(.text)
    DevicEemergencyStopCal                   0x0800c251   Thumb Code   190  statemachine.o(.text)
    DeviceNormalStopCondition                0x0800c30f   Thumb Code    34  statemachine.o(.text)
    DeviceTriggerStartCondition              0x0800c331   Thumb Code    96  statemachine.o(.text)
    IdleStateProcess                         0x0800c391   Thumb Code   106  statemachine.o(.text)
    IdleStateInit                            0x0800c3fb   Thumb Code   106  statemachine.o(.text)
    ReadyStateEntry                          0x0800c465   Thumb Code    36  statemachine.o(.text)
    ReadyStateExit                           0x0800c489   Thumb Code     2  statemachine.o(.text)
    ReadyStateProcess                        0x0800c48b   Thumb Code   128  statemachine.o(.text)
    ReadyStateInit                           0x0800c50b   Thumb Code    20  statemachine.o(.text)
    RunningStateEntry                        0x0800c51f   Thumb Code   106  statemachine.o(.text)
    RunningStateExit                         0x0800c589   Thumb Code     2  statemachine.o(.text)
    RunningStateProcess                      0x0800c58b   Thumb Code    90  statemachine.o(.text)
    RunningStateInit                         0x0800c5e5   Thumb Code    20  statemachine.o(.text)
    SuspendStateEntry                        0x0800c5f9   Thumb Code    70  statemachine.o(.text)
    SuspendStateExit                         0x0800c63f   Thumb Code    12  statemachine.o(.text)
    SuspendStateProcess                      0x0800c64b   Thumb Code    64  statemachine.o(.text)
    SuspendStateInit                         0x0800c68b   Thumb Code    20  statemachine.o(.text)
    .text                                    0x0800c714   Section        0  page2pathconfig.o(.text)
    .text                                    0x0800cf08   Section        0  page1flinepathconfig.o(.text)
    .text                                    0x0800d124   Section        0  page3flinedevice.o(.text)
    .text                                    0x0800d858   Section        0  page5revise.o(.text)
    .text                                    0x0800dba0   Section        0  page6readpathconfig.o(.text)
    .text                                    0x0800dfdc   Section        0  page7controlfline.o(.text)
    .text                                    0x0800e48c   Section        0  page8switchvalve.o(.text)
    .text                                    0x0800e85c   Section        0  page9switchvalveconfig.o(.text)
    .text                                    0x0800ec70   Section        0  page10towersout.o(.text)
    .text                                    0x0800f0b0   Section        0  page11towersoutconfig.o(.text)
    .text                                    0x0800f778   Section        0  page12s1s2control.o(.text)
    .text                                    0x0800fe78   Section        0  page13linkconfig .o(.text)
    .text                                    0x08010730   Section        0  page14w1control.o(.text)
    .text                                    0x080109cc   Section        0  page15w2control.o(.text)
    .text                                    0x080110e8   Section        0  page16e1e2control.o(.text)
    .text                                    0x08011334   Section        0  page17c1control.o(.text)
    .text                                    0x08011bf8   Section        0  page18c2control.o(.text)
    .text                                    0x08012348   Section        0  page19n1control.o(.text)
    .text                                    0x08012594   Section        0  page20n2control.o(.text)
    .text                                    0x080127f8   Section        0  wirelesscomm.o(.text)
    .text                                    0x0801380c   Section        0  wlan4gcomm.o(.text)
    .text                                    0x08014c30   Section        0  airiap.o(.text)
    .text                                    0x08015d0c   Section        0  noretval__2sprintf.o(.text)
    .text                                    0x08015d34   Section        0  _printf_pad.o(.text)
    .text                                    0x08015d84   Section        0  _printf_dec.o(.text)
    .text                                    0x08015dfc   Section        0  _printf_hex_int.o(.text)
    .text                                    0x08015e54   Section        0  __printf_flags_wp.o(.text)
    .text                                    0x08015f8c   Section      100  rt_memcpy_w.o(.text)
    .text                                    0x08015ff0   Section       68  rt_memclr.o(.text)
    .text                                    0x08016034   Section       78  rt_memclr_w.o(.text)
    .text                                    0x08016082   Section        0  heapauxi.o(.text)
    .text                                    0x08016088   Section        0  _printf_intcommon.o(.text)
    .text                                    0x0801613c   Section        0  _printf_char_common.o(.text)
    _printf_input_char                       0x0801613d   Thumb Code    10  _printf_char_common.o(.text)
    .text                                    0x0801616c   Section        0  _sputc.o(.text)
    .text                                    0x08016176   Section       74  sys_stackheap_outer.o(.text)
    .text                                    0x080161c0   Section        0  exit.o(.text)
    .text                                    0x080161cc   Section        8  libspace.o(.text)
    .text                                    0x080161d4   Section        0  sys_exit.o(.text)
    .text                                    0x080161e0   Section        2  use_no_semi.o(.text)
    .text                                    0x080161e2   Section        0  indicate_semi.o(.text)
    i._is_digit                              0x080161e2   Section        0  __printf_wp.o(i._is_digit)
    x$fpl$dcmpinf                            0x080161f0   Section       24  dcmpi.o(x$fpl$dcmpinf)
    x$fpl$dleqf                              0x08016208   Section      120  dleqf.o(x$fpl$dleqf)
    x$fpl$dnaninf                            0x08016280   Section      156  dnaninf.o(x$fpl$dnaninf)
    x$fpl$dretinf                            0x0801631c   Section       12  dretinf.o(x$fpl$dretinf)
    x$fpl$drleqf                             0x08016328   Section      108  drleqf.o(x$fpl$drleqf)
    x$fpl$f2d                                0x08016394   Section       86  f2d.o(x$fpl$f2d)
    x$fpl$fadd                               0x080163ec   Section      196  faddsub_clz.o(x$fpl$fadd)
    _fadd1                                   0x080163fb   Thumb Code     0  faddsub_clz.o(x$fpl$fadd)
    x$fpl$ffix                               0x080164b0   Section       54  ffix.o(x$fpl$ffix)
    x$fpl$fflt                               0x080164e8   Section       48  fflt_clz.o(x$fpl$fflt)
    x$fpl$fmul                               0x08016518   Section      258  fmul.o(x$fpl$fmul)
    x$fpl$fnaninf                            0x0801661a   Section      140  fnaninf.o(x$fpl$fnaninf)
    x$fpl$fretinf                            0x080166a6   Section       10  fretinf.o(x$fpl$fretinf)
    x$fpl$frsb                               0x080166b0   Section       20  faddsub_clz.o(x$fpl$frsb)
    x$fpl$fsub                               0x080166c4   Section      234  faddsub_clz.o(x$fpl$fsub)
    _fsub1                                   0x080166d3   Thumb Code     0  faddsub_clz.o(x$fpl$fsub)
    x$fpl$usenofp                            0x080167ae   Section        0  usenofp.o(x$fpl$usenofp)
    .constdata                               0x080167b0   Section      104  rtc.o(.constdata)
    .constdata                               0x08016818   Section      256  os_core.o(.constdata)
    .constdata                               0x08016918   Section      256  os_wrap.o(.constdata)
    .constdata                               0x08016a18   Section       68  wlan4gcomm.o(.constdata)
    .constdata                               0x08016a5c   Section       40  _printf_hex_int.o(.constdata)
    uc_hextab                                0x08016a5c   Data          20  _printf_hex_int.o(.constdata)
    lc_hextab                                0x08016a70   Data          20  _printf_hex_int.o(.constdata)
    .constdata                               0x08016a84   Section       17  __printf_flags_wp.o(.constdata)
    maptable                                 0x08016a84   Data          17  __printf_flags_wp.o(.constdata)
    STKV                                     0x08016ab8   Section       23  stm32f10x.o(STKV)
    FAULT_MSG                                0x08016ab8   Data           7  stm32f10x.o(STKV)
    STK_OV_MSG                               0x08016abf   Data          16  stm32f10x.o(STKV)
    .ARM.__AT_0x20000000                     0x20000000   Section     4096  stm32f10x.o(.ARM.__AT_0x20000000)
    Stack_Mem                                0x20000000   Data        4096  stm32f10x.o(.ARM.__AT_0x20000000)
    .data                                    0x20001000   Section       20  rtc.o(.data)
    __initial_sp                             0x20001000   Data           0  stm32f10x.o(.ARM.__AT_0x20000000)
    setTime                                  0x20001000   Data           8  rtc.o(.data)
    timeHex                                  0x20001008   Data           2  rtc.o(.data)
    hour                                     0x2000100a   Data           2  rtc.o(.data)
    min                                      0x2000100c   Data           2  rtc.o(.data)
    timeDeci                                 0x2000100e   Data           2  rtc.o(.data)
    hour                                     0x20001010   Data           2  rtc.o(.data)
    min                                      0x20001012   Data           2  rtc.o(.data)
    .data                                    0x20001014   Section       52  os_core.o(.data)
    .data                                    0x20001048   Section        4  main.o(.data)
    .data                                    0x2000104c   Section       59  systeminit.o(.data)
    .data                                    0x20001088   Section        8  dispatcher.o(.data)
    gCmdTimeSent                             0x2000108c   Data           4  dispatcher.o(.data)
    .data                                    0x20001090   Section        2  wirelessapp.o(.data)
    s_cOldestIndex                           0x20001090   Data           1  wirelessapp.o(.data)
    temp                                     0x20001091   Data           1  wirelessapp.o(.data)
    .data                                    0x20001094   Section       13  displayprotocol.o(.data)
    DisplaySndMsgs                           0x200010a0   Data           1  displayprotocol.o(.data)
    .data                                    0x200010a1   Section        6  stm32f10x_it.o(.data)
    gRightSign                               0x200010a1   Data           3  stm32f10x_it.o(.data)
    DisplayUartIdx                           0x200010a4   Data           1  stm32f10x_it.o(.data)
    DisplayUartMsgs                          0x200010a5   Data           1  stm32f10x_it.o(.data)
    DisplayUartLen                           0x200010a6   Data           1  stm32f10x_it.o(.data)
    .data                                    0x200010a7   Section       20  stm32f10x_rcc.o(.data)
    APBAHBPrescTable                         0x200010a7   Data          16  stm32f10x_rcc.o(.data)
    ADCPrescTable                            0x200010b7   Data           4  stm32f10x_rcc.o(.data)
    .data                                    0x200010bc   Section        8  os_wrap.o(.data)
    Prio                                     0x200010bc   Data           1  os_wrap.o(.data)
    Id                                       0x200010c0   Data           4  os_wrap.o(.data)
    .data                                    0x200010c4   Section        2  displaypara.o(.data)
    afterDealState                           0x200010c4   Data           1  displaypara.o(.data)
    beforeDealState                          0x200010c5   Data           1  displaypara.o(.data)
    .data                                    0x200010c8   Section       29  parasettinglib.o(.data)
    gLinkParameter                           0x200010c8   Data           1  parasettinglib.o(.data)
    gRcDevicePara                            0x200010cc   Data           4  parasettinglib.o(.data)
    gSwitchValveControl                      0x200010d0   Data           6  parasettinglib.o(.data)
    gSwitchValvePara                         0x200010d6   Data           4  parasettinglib.o(.data)
    PageXId                                  0x200010dc   Data           4  parasettinglib.o(.data)
    gHead                                    0x200010e0   Data           4  parasettinglib.o(.data)
    gParaRefresh                             0x200010e4   Data           1  parasettinglib.o(.data)
    .data                                    0x200010e8   Section       42  foodlinecontrol.o(.data)
    gFlineCtrlSeq                            0x200010fc   Data           1  foodlinecontrol.o(.data)
    SeqMap                                   0x20001104   Data           6  foodlinecontrol.o(.data)
    index                                    0x2000110a   Data           1  foodlinecontrol.o(.data)
    areaIndex                                0x2000110b   Data           1  foodlinecontrol.o(.data)
    i                                        0x2000110c   Data           1  foodlinecontrol.o(.data)
    j                                        0x2000110d   Data           1  foodlinecontrol.o(.data)
    k                                        0x2000110e   Data           1  foodlinecontrol.o(.data)
    myselfMachineFlag                        0x2000110f   Data           1  foodlinecontrol.o(.data)
    index                                    0x20001110   Data           1  foodlinecontrol.o(.data)
    areaIndex                                0x20001111   Data           1  foodlinecontrol.o(.data)
    .data                                    0x20001114   Section       12  statemachine.o(.data)
    gState                                   0x20001118   Data           4  statemachine.o(.data)
    equipIndex                               0x2000111c   Data           1  statemachine.o(.data)
    areaIndex                                0x2000111d   Data           1  statemachine.o(.data)
    equipIndex                               0x2000111e   Data           1  statemachine.o(.data)
    areaIndex                                0x2000111f   Data           1  statemachine.o(.data)
    .data                                    0x20001120   Section        3  page2pathconfig.o(.data)
    gP2Table                                 0x20001120   Data           1  page2pathconfig.o(.data)
    gIndex                                   0x20001121   Data           1  page2pathconfig.o(.data)
    gPage2Seq                                0x20001122   Data           1  page2pathconfig.o(.data)
    .data                                    0x20001123   Section        2  page1flinepathconfig.o(.data)
    gPath                                    0x20001123   Data           1  page1flinepathconfig.o(.data)
    gSeq                                     0x20001124   Data           1  page1flinepathconfig.o(.data)
    .data                                    0x20001128   Section        9  page3flinedevice.o(.data)
    gPage3DevicePara                         0x20001128   Data           4  page3flinedevice.o(.data)
    pFoodlineDevicePara                      0x2000112c   Data           4  page3flinedevice.o(.data)
    gPage3Seq                                0x20001130   Data           1  page3flinedevice.o(.data)
    .data                                    0x20001134   Section       12  page5revise.o(.data)
    gPage5NewDevicePara                      0x20001134   Data           4  page5revise.o(.data)
    gPage5LocalDevicePara                    0x20001138   Data           4  page5revise.o(.data)
    pPage5OldDevicePara                      0x2000113c   Data           4  page5revise.o(.data)
    .data                                    0x20001140   Section        2  page6readpathconfig.o(.data)
    gP6Table                                 0x20001140   Data           1  page6readpathconfig.o(.data)
    gPage6Seq                                0x20001141   Data           1  page6readpathconfig.o(.data)
    .data                                    0x20001144   Section        6  page7controlfline.o(.data)
    gPage7DevicePara                         0x20001144   Data           4  page7controlfline.o(.data)
    gPage7Seq                                0x20001148   Data           1  page7controlfline.o(.data)
    gPage7Action                             0x20001149   Data           1  page7controlfline.o(.data)
    .data                                    0x2000114c   Section        6  page8switchvalve.o(.data)
    gPage8DevicePara                         0x2000114c   Data           4  page8switchvalve.o(.data)
    gPage8Seq                                0x20001150   Data           1  page8switchvalve.o(.data)
    gP8Action                                0x20001151   Data           1  page8switchvalve.o(.data)
    .data                                    0x20001154   Section        9  page9switchvalveconfig.o(.data)
    gPage9DevicePara                         0x20001154   Data           4  page9switchvalveconfig.o(.data)
    pSwitchValvePara                         0x20001158   Data           4  page9switchvalveconfig.o(.data)
    gPage9Seq                                0x2000115c   Data           1  page9switchvalveconfig.o(.data)
    .data                                    0x20001160   Section        6  page10towersout.o(.data)
    gPage10DevicePara                        0x20001160   Data           4  page10towersout.o(.data)
    gPage10Seq                               0x20001164   Data           1  page10towersout.o(.data)
    gPage10Action                            0x20001165   Data           1  page10towersout.o(.data)
    .data                                    0x20001168   Section        9  page11towersoutconfig.o(.data)
    gPage11DevicePara                        0x20001168   Data           4  page11towersoutconfig.o(.data)
    pTowersOutDevicePara                     0x2000116c   Data           4  page11towersoutconfig.o(.data)
    gPage11Seq                               0x20001170   Data           1  page11towersoutconfig.o(.data)
    .data                                    0x20001171   Section        3  page13linkconfig .o(.data)
    gP13Table                                0x20001171   Data           1  page13linkconfig .o(.data)
    areaIndex                                0x20001172   Data           1  page13linkconfig .o(.data)
    gPage13Seq                               0x20001173   Data           1  page13linkconfig .o(.data)
    .data                                    0x20001174   Section        1  page14w1control.o(.data)
    .data                                    0x20001175   Section        1  page17c1control.o(.data)
    .data                                    0x20001176   Section        1  page19n1control.o(.data)
    .data                                    0x20001178   Section       52  wirelesscomm.o(.data)
    wireless_uart                            0x2000117c   Data           4  wirelesscomm.o(.data)
    WirelessCommRecv_Task_Handle             0x20001190   Data           4  wirelesscomm.o(.data)
    WirelessCommSend_Task_Handle             0x20001194   Data           4  wirelesscomm.o(.data)
    WirelessCommRetrans_Task_Handle          0x20001198   Data           4  wirelesscomm.o(.data)
    forward_mode                             0x2000119c   Data           1  wirelesscomm.o(.data)
    retrans_count                            0x2000119d   Data           1  wirelesscomm.o(.data)
    send_2_uart                              0x2000119e   Data           2  wirelesscomm.o(.data)
    WirelessSeq                              0x200011a0   Data           2  wirelesscomm.o(.data)
    LatestSeq                                0x200011a2   Data           1  wirelesscomm.o(.data)
    LatestAck                                0x200011a3   Data           1  wirelesscomm.o(.data)
    UartSt                                   0x200011a4   Data           1  wirelesscomm.o(.data)
    UartLen                                  0x200011a5   Data           1  wirelesscomm.o(.data)
    UartAux                                  0x200011a6   Data           1  wirelesscomm.o(.data)
    UartIdx                                  0x200011a7   Data           1  wirelesscomm.o(.data)
    Retrans                                  0x200011a8   Data           4  wirelesscomm.o(.data)
    .data                                    0x200011ac   Section       56  wlan4gcomm.o(.data)
    gWlan4GRcv_Queue                         0x200011ac   Data           4  wlan4gcomm.o(.data)
    gWlan4GSnd_Queue                         0x200011b0   Data           4  wlan4gcomm.o(.data)
    gWlan4GRcvSt_Queue                       0x200011b4   Data           4  wlan4gcomm.o(.data)
    gWlan4GSndSt_Queue                       0x200011b8   Data           4  wlan4gcomm.o(.data)
    gWlan4GSndDrv_Queue                      0x200011bc   Data           4  wlan4gcomm.o(.data)
    wlan4g_uart                              0x200011c4   Data           4  wlan4gcomm.o(.data)
    Wlan4GLink_Task_Handle                   0x200011c8   Data           4  wlan4gcomm.o(.data)
    Wlan4GPkt_Task_Handle                    0x200011cc   Data           4  wlan4gcomm.o(.data)
    Wlan4GSend_Task_Handle                   0x200011d0   Data           4  wlan4gcomm.o(.data)
    packet_msglen                            0x200011d4   Data           2  wlan4gcomm.o(.data)
    wlan4g_link_stat                         0x200011d6   Data           1  wlan4gcomm.o(.data)
    Uart4GStat                               0x200011d7   Data           1  wlan4gcomm.o(.data)
    Uart4GLen                                0x200011d8   Data           2  wlan4gcomm.o(.data)
    wlan4g_idle_tick                         0x200011dc   Data           4  wlan4gcomm.o(.data)
    Wlan4G_SndId                             0x200011e0   Data           1  wlan4gcomm.o(.data)
    Wlan4G_Svr_Ports                         0x200011e2   Data           2  wlan4gcomm.o(.data)
    .data                                    0x200011e4   Section       52  airiap.o(.data)
    mac_address                              0x200011e4   Data           4  airiap.o(.data)
    paras_address                            0x200011e8   Data           4  airiap.o(.data)
    iapinfo_address                          0x200011ec   Data           4  airiap.o(.data)
    gIapMsg_Queue                            0x200011f0   Data           4  airiap.o(.data)
    IapReq_Task_Handle                       0x200011f4   Data           4  airiap.o(.data)
    IapDat_Task_Handle                       0x200011f8   Data           4  airiap.o(.data)
    last_rcvtick                             0x200011fc   Data           4  airiap.o(.data)
    call_time                                0x20001200   Data           4  airiap.o(.data)
    IapAskaddr                               0x20001204   Data           4  airiap.o(.data)
    IapAsklen                                0x20001208   Data           1  airiap.o(.data)
    last_optimes                             0x20001209   Data           1  airiap.o(.data)
    iap_en_rtc                               0x2000120a   Data           1  airiap.o(.data)
    iap_loopasktime                          0x2000120c   Data           2  airiap.o(.data)
    iap_reqdattime                           0x2000120e   Data           2  airiap.o(.data)
    funcwlan4g                               0x20001210   Data           4  airiap.o(.data)
    funcwireless                             0x20001214   Data           4  airiap.o(.data)
    .bss                                     0x20001218   Section       18  spi.o(.bss)
    .bss                                     0x2000122c   Section     3832  os_core.o(.bss)
    .bss                                     0x20002124   Section    24930  systeminit.o(.bss)
    gLocalConfigPara                         0x20008274   Data          18  systeminit.o(.bss)
    .bss                                     0x20008288   Section       36  wirelessapp.o(.bss)
    s_SeqHistory                             0x20008288   Data          36  wirelessapp.o(.bss)
    .bss                                     0x200082ac   Section     4128  displayprotocol.o(.bss)
    .bss                                     0x200092cc   Section      128  stm32f10x_it.o(.bss)
    DisplayUartRxBuf                         0x200092cc   Data         128  stm32f10x_it.o(.bss)
    .bss                                     0x2000934c   Section     1024  os_wrap.o(.bss)
    HeapRecord                               0x2000934c   Data        1024  os_wrap.o(.bss)
    .bss                                     0x2000974c   Section    14014  parasettinglib.o(.bss)
    FoodLineTime                             0x2000974c   Data          20  parasettinglib.o(.bss)
    gScrInf                                  0x20009760   Data          10  parasettinglib.o(.bss)
    gWirlessPara                             0x2000976a   Data          89  parasettinglib.o(.bss)
    gPathParameter                           0x200097c4   Data        8060  parasettinglib.o(.bss)
    gReadPath                                0x2000b740   Data         168  parasettinglib.o(.bss)
    gFoodlineDevicePara                      0x2000cdc8   Data          16  parasettinglib.o(.bss)
    gFoodlineControl                         0x2000cdd8   Data          18  parasettinglib.o(.bss)
    gTowersOutControl                        0x2000cdea   Data          16  parasettinglib.o(.bss)
    gTowersOutPara                           0x2000cdfa   Data          16  parasettinglib.o(.bss)
    .bss                                     0x2000ce0c   Section       76  foodlinecontrol.o(.bss)
    gDeviceControlPara                       0x2000ce0c   Data          76  foodlinecontrol.o(.bss)
    .bss                                     0x2000ce58   Section       64  statemachine.o(.bss)
    gStateIdle                               0x2000ce58   Data          16  statemachine.o(.bss)
    gStateReady                              0x2000ce68   Data          16  statemachine.o(.bss)
    gStateRunning                            0x2000ce78   Data          16  statemachine.o(.bss)
    gStateSuspend                            0x2000ce88   Data          16  statemachine.o(.bss)
    .bss                                     0x2000ce98   Section       80  page1flinepathconfig.o(.bss)
    gflinePara                               0x2000ce98   Data          80  page1flinepathconfig.o(.bss)
    .bss                                     0x2000cee8   Section      264  wirelesscomm.o(.bss)
    UartRxBuf                                0x2000cee8   Data         128  wirelesscomm.o(.bss)
    wlanintevt                               0x2000cf68   Data         136  wirelesscomm.o(.bss)
    .bss                                     0x2000cff0   Section      564  wlan4gcomm.o(.bss)
    packet_msg                               0x2000d008   Data         256  wlan4gcomm.o(.bss)
    Uart4GBuf                                0x2000d108   Data         128  wlan4gcomm.o(.bss)
    w4gintevt                                0x2000d188   Data         136  wlan4gcomm.o(.bss)
    Wlan4G_Svr_Ip                            0x2000d210   Data          20  wlan4gcomm.o(.bss)
    .bss                                     0x2000d224   Section      148  airiap.o(.bss)
    chip_guid                                0x2000d224   Data          12  airiap.o(.bss)
    DefInfo                                  0x2000d230   Data          32  airiap.o(.bss)
    IapInfo                                  0x2000d250   Data          32  airiap.o(.bss)
    RcvIapDt                                 0x2000d270   Data          72  airiap.o(.bss)
    .bss                                     0x2000d2b8   Section       96  libspace.o(.bss)
    HEAP                                     0x2000d318   Section        0  stm32f10x.o(HEAP)
    Heap_Mem                                 0x2000d318   Data           0  stm32f10x.o(HEAP)

    Global Symbols

    Symbol Name                              Value     Ov Type        Size  Object(Section)

    BuildAttributes$$THM_ISAv4$P$D$K$B$S$PE$A:L22UL41UL21$X:L11$S22US41US21$IEEE1$IW$USESV6$~STKCKD$USESV7$~SHL$OSPACE$ROPI$EBA8$UX$STANDARDLIB$REQ8$PRES8$EABIv2 0x00000000   Number         0  anon$$obj.o ABSOLUTE
    __ARM_use_no_argv                        0x00000000   Number         0  main.o ABSOLUTE
    _printf_flags                            0x00000000   Number         0  printf_stubs.o ABSOLUTE
    _printf_return_value                     0x00000000   Number         0  printf_stubs.o ABSOLUTE
    _printf_sizespec                         0x00000000   Number         0  printf_stubs.o ABSOLUTE
    _printf_widthprec                        0x00000000   Number         0  printf_stubs.o ABSOLUTE
    __ARM_exceptions_init                     - Undefined Weak Reference
    __alloca_initialize                       - Undefined Weak Reference
    __arm_preinit_                            - Undefined Weak Reference
    __cpp_initialize__aeabi_                  - Undefined Weak Reference
    __cxa_finalize                            - Undefined Weak Reference
    __rt_locale                               - Undefined Weak Reference
    __sigvec_lookup                           - Undefined Weak Reference
    _atexit_init                              - Undefined Weak Reference
    _call_atexit_fns                          - Undefined Weak Reference
    _clock_init                               - Undefined Weak Reference
    _fp_trap_init                             - Undefined Weak Reference
    _fp_trap_shutdown                         - Undefined Weak Reference
    _get_lc_collate                           - Undefined Weak Reference
    _get_lc_ctype                             - Undefined Weak Reference
    _get_lc_monetary                          - Undefined Weak Reference
    _get_lc_numeric                           - Undefined Weak Reference
    _get_lc_time                              - Undefined Weak Reference
    _getenv_init                              - Undefined Weak Reference
    _handle_redirection                       - Undefined Weak Reference
    _init_alloc                               - Undefined Weak Reference
    _init_user_alloc                          - Undefined Weak Reference
    _initio                                   - Undefined Weak Reference
    _printf_truncate_signed                   - Undefined Weak Reference
    _printf_truncate_unsigned                 - Undefined Weak Reference
    _rand_init                                - Undefined Weak Reference
    _signal_finish                            - Undefined Weak Reference
    _signal_init                              - Undefined Weak Reference
    _terminate_alloc                          - Undefined Weak Reference
    _terminate_user_alloc                     - Undefined Weak Reference
    _terminateio                              - Undefined Weak Reference
    __Vectors                                0x08002800   Data           4  stm32f10x.o(RESET)
    __main                                   0x08002931   Thumb Code     8  __main.o(!!!main)
    __scatterload                            0x08002939   Thumb Code     0  __scatter.o(!!!scatter)
    __scatterload_rt2                        0x08002939   Thumb Code    44  __scatter.o(!!!scatter)
    __scatterload_rt2_thumb_only             0x08002939   Thumb Code     0  __scatter.o(!!!scatter)
    __scatterload_null                       0x08002947   Thumb Code     0  __scatter.o(!!!scatter)
    __decompress                             0x0800296d   Thumb Code    90  __dczerorl2.o(!!dczerorl2)
    __decompress1                            0x0800296d   Thumb Code     0  __dczerorl2.o(!!dczerorl2)
    __scatterload_zeroinit                   0x080029c9   Thumb Code    28  __scatter_zi.o(!!handler_zi)
    _printf_d                                0x080029e5   Thumb Code     0  _printf_d.o(.ARM.Collect$$_printf_percent$$00000009)
    _printf_percent                          0x080029e5   Thumb Code     0  _printf_percent.o(.ARM.Collect$$_printf_percent$$00000000)
    _printf_x                                0x080029eb   Thumb Code     0  _printf_x.o(.ARM.Collect$$_printf_percent$$0000000C)
    _printf_percent_end                      0x080029f1   Thumb Code     0  _printf_percent_end.o(.ARM.Collect$$_printf_percent$$00000017)
    __rt_lib_init                            0x080029f5   Thumb Code     0  libinit.o(.ARM.Collect$$libinit$$00000000)
    __rt_lib_init_alloca_1                   0x080029f7   Thumb Code     0  libinit2.o(.ARM.Collect$$libinit$$0000002E)
    __rt_lib_init_argv_1                     0x080029f7   Thumb Code     0  libinit2.o(.ARM.Collect$$libinit$$0000002C)
    __rt_lib_init_atexit_1                   0x080029f7   Thumb Code     0  libinit2.o(.ARM.Collect$$libinit$$0000001B)
    __rt_lib_init_clock_1                    0x080029f7   Thumb Code     0  libinit2.o(.ARM.Collect$$libinit$$00000021)
    __rt_lib_init_cpp_1                      0x080029f7   Thumb Code     0  libinit2.o(.ARM.Collect$$libinit$$00000032)
    __rt_lib_init_exceptions_1               0x080029f7   Thumb Code     0  libinit2.o(.ARM.Collect$$libinit$$00000030)
    __rt_lib_init_fp_1                       0x080029f7   Thumb Code     0  libinit2.o(.ARM.Collect$$libinit$$00000002)
    __rt_lib_init_fp_trap_1                  0x080029f7   Thumb Code     0  libinit2.o(.ARM.Collect$$libinit$$0000001F)
    __rt_lib_init_getenv_1                   0x080029f7   Thumb Code     0  libinit2.o(.ARM.Collect$$libinit$$00000023)
    __rt_lib_init_heap_1                     0x080029f7   Thumb Code     0  libinit2.o(.ARM.Collect$$libinit$$0000000A)
    __rt_lib_init_lc_collate_1               0x080029f7   Thumb Code     0  libinit2.o(.ARM.Collect$$libinit$$00000011)
    __rt_lib_init_lc_ctype_1                 0x080029f7   Thumb Code     0  libinit2.o(.ARM.Collect$$libinit$$00000013)
    __rt_lib_init_lc_monetary_1              0x080029f7   Thumb Code     0  libinit2.o(.ARM.Collect$$libinit$$00000015)
    __rt_lib_init_lc_numeric_1               0x080029f7   Thumb Code     0  libinit2.o(.ARM.Collect$$libinit$$00000017)
    __rt_lib_init_lc_time_1                  0x080029f7   Thumb Code     0  libinit2.o(.ARM.Collect$$libinit$$00000019)
    __rt_lib_init_preinit_1                  0x080029f7   Thumb Code     0  libinit2.o(.ARM.Collect$$libinit$$00000004)
    __rt_lib_init_rand_1                     0x080029f7   Thumb Code     0  libinit2.o(.ARM.Collect$$libinit$$0000000E)
    __rt_lib_init_return                     0x080029f7   Thumb Code     0  libinit2.o(.ARM.Collect$$libinit$$00000033)
    __rt_lib_init_signal_1                   0x080029f7   Thumb Code     0  libinit2.o(.ARM.Collect$$libinit$$0000001D)
    __rt_lib_init_stdio_1                    0x080029f7   Thumb Code     0  libinit2.o(.ARM.Collect$$libinit$$00000025)
    __rt_lib_init_user_alloc_1               0x080029f7   Thumb Code     0  libinit2.o(.ARM.Collect$$libinit$$0000000C)
    __rt_lib_shutdown                        0x080029f9   Thumb Code     0  libshutdown.o(.ARM.Collect$$libshutdown$$00000000)
    __rt_lib_shutdown_fp_trap_1              0x080029fb   Thumb Code     0  libshutdown2.o(.ARM.Collect$$libshutdown$$00000006)
    __rt_lib_shutdown_heap_1                 0x080029fb   Thumb Code     0  libshutdown2.o(.ARM.Collect$$libshutdown$$0000000E)
    __rt_lib_shutdown_return                 0x080029fb   Thumb Code     0  libshutdown2.o(.ARM.Collect$$libshutdown$$0000000F)
    __rt_lib_shutdown_signal_1               0x080029fb   Thumb Code     0  libshutdown2.o(.ARM.Collect$$libshutdown$$00000009)
    __rt_lib_shutdown_stdio_1                0x080029fb   Thumb Code     0  libshutdown2.o(.ARM.Collect$$libshutdown$$00000003)
    __rt_lib_shutdown_user_alloc_1           0x080029fb   Thumb Code     0  libshutdown2.o(.ARM.Collect$$libshutdown$$0000000B)
    __rt_entry                               0x080029fd   Thumb Code     0  __rtentry.o(.ARM.Collect$$rtentry$$00000000)
    __rt_entry_presh_1                       0x080029fd   Thumb Code     0  __rtentry2.o(.ARM.Collect$$rtentry$$00000002)
    __rt_entry_sh                            0x080029fd   Thumb Code     0  __rtentry4.o(.ARM.Collect$$rtentry$$00000004)
    __rt_entry_li                            0x08002a03   Thumb Code     0  __rtentry2.o(.ARM.Collect$$rtentry$$0000000A)
    __rt_entry_postsh_1                      0x08002a03   Thumb Code     0  __rtentry2.o(.ARM.Collect$$rtentry$$00000009)
    __rt_entry_main                          0x08002a07   Thumb Code     0  __rtentry2.o(.ARM.Collect$$rtentry$$0000000D)
    __rt_entry_postli_1                      0x08002a07   Thumb Code     0  __rtentry2.o(.ARM.Collect$$rtentry$$0000000C)
    __rt_exit                                0x08002a0f   Thumb Code     0  rtexit.o(.ARM.Collect$$rtexit$$00000000)
    __rt_exit_ls                             0x08002a11   Thumb Code     0  rtexit2.o(.ARM.Collect$$rtexit$$00000003)
    __rt_exit_prels_1                        0x08002a11   Thumb Code     0  rtexit2.o(.ARM.Collect$$rtexit$$00000002)
    __rt_exit_exit                           0x08002a15   Thumb Code     0  rtexit2.o(.ARM.Collect$$rtexit$$00000004)
    __get_PSP                                0x08002a1d   Thumb Code     6  core_cm3.o(.emb_text)
    __set_PSP                                0x08002a23   Thumb Code     6  core_cm3.o(.emb_text)
    __get_MSP                                0x08002a29   Thumb Code     6  core_cm3.o(.emb_text)
    __set_MSP                                0x08002a2f   Thumb Code     6  core_cm3.o(.emb_text)
    __REV16                                  0x08002a35   Thumb Code     4  core_cm3.o(.emb_text)
    __REVSH                                  0x08002a39   Thumb Code     4  core_cm3.o(.emb_text)
    Reset_Handler                            0x08002a3d   Thumb Code     4  stm32f10x.o(.text)
    CAN1_RX1_IRQHandler                      0x08002aa3   Thumb Code     0  stm32f10x.o(.text)
    CAN1_SCE_IRQHandler                      0x08002aa3   Thumb Code     0  stm32f10x.o(.text)
    __user_initial_stackheap                 0x08002aa5   Thumb Code     0  stm32f10x.o(.text)
    RTC_Configuration                        0x08002ae1   Thumb Code   154  rtc.o(.text)
    RTC_Adjust                               0x08002b7b   Thumb Code   308  rtc.o(.text)
    RTC_SetUp                                0x08002caf   Thumb Code   146  rtc.o(.text)
    RTCTimeTodate                            0x08002d41   Thumb Code   366  rtc.o(.text)
    rtcTimeConver                            0x08002eaf   Thumb Code   396  rtc.o(.text)
    RTC_GetTime                              0x0800303b   Thumb Code   384  rtc.o(.text)
    TimeHexConvertDeci                       0x080031bb   Thumb Code   118  rtc.o(.text)
    RTC_SetTime                              0x08003231   Thumb Code    92  rtc.o(.text)
    TimeDeciConvertHex                       0x0800328d   Thumb Code   116  rtc.o(.text)
    COM1_Init                                0x08003339   Thumb Code   148  uart.o(.text)
    COM2_Init                                0x080033cd   Thumb Code   174  uart.o(.text)
    WirelessReset                            0x0800347b   Thumb Code     2  uart.o(.text)
    COM3_Init                                0x0800347d   Thumb Code   178  uart.o(.text)
    COM4_Init                                0x0800352f   Thumb Code   150  uart.o(.text)
    COM5_Init                                0x080035c5   Thumb Code   146  uart.o(.text)
    FlashCheckFF                             0x0800367d   Thumb Code    42  flash.o(.text)
    FlashRead                                0x080036a7   Thumb Code    58  flash.o(.text)
    FlashReadWithCheck                       0x080036e1   Thumb Code   110  flash.o(.text)
    FlashWrite                               0x0800374f   Thumb Code    68  flash.o(.text)
    FlashWriteWithCheck                      0x08003793   Thumb Code    92  flash.o(.text)
    FlashErase                               0x080037ef   Thumb Code    44  flash.o(.text)
    delay_us                                 0x0800381b   Thumb Code    80  delay.o(.text)
    IWDG_Init                                0x0800386b   Thumb Code    36  wdg.o(.text)
    IWDG_Feed                                0x0800388f   Thumb Code     8  wdg.o(.text)
    SPI1_ReadWriteByte                       0x08003899   Thumb Code    78  spi.o(.text)
    SPI1_Init                                0x080038e7   Thumb Code   108  spi.o(.text)
    SPI1_SetSpeed                            0x08003953   Thumb Code    26  spi.o(.text)
    SPI_Flash_Init                           0x08003979   Thumb Code    54  spiflash.o(.text)
    SPI_Flash_ReadSR                         0x080039af   Thumb Code    36  spiflash.o(.text)
    SPI_FLASH_Write_SR                       0x080039d3   Thumb Code    32  spiflash.o(.text)
    SPI_FLASH_Write_Enable                   0x080039f3   Thumb Code    24  spiflash.o(.text)
    SPI_FLASH_Write_Disable                  0x08003a0b   Thumb Code    24  spiflash.o(.text)
    SPI_Flash_Read                           0x08003a23   Thumb Code    74  spiflash.o(.text)
    SPI_Flash_Wait_Busy                      0x08003a6d   Thumb Code    18  spiflash.o(.text)
    SPI_Flash_Write_Page                     0x08003a7f   Thumb Code    80  spiflash.o(.text)
    SPI_Flash_Write_NoCheck                  0x08003acf   Thumb Code    70  spiflash.o(.text)
    SPI_Flash_Erase_Sector                   0x08003b15   Thumb Code    62  spiflash.o(.text)
    SPI_Flash_Write                          0x08003b53   Thumb Code    90  spiflash.o(.text)
    SPI_Flash_Erase_Chip                     0x08003bad   Thumb Code    36  spiflash.o(.text)
    SPI_Flash_PowerDown                      0x08003bd1   Thumb Code    30  spiflash.o(.text)
    SPI_Flash_WAKEUP                         0x08003bef   Thumb Code    30  spiflash.o(.text)
    OS_TaskIdle                              0x08003c19   Thumb Code    28  os_core.o(.text)
    OS_MemClr                                0x08003c47   Thumb Code    18  os_core.o(.text)
    OSInit                                   0x08003d1f   Thumb Code    28  os_core.o(.text)
    OSIntEnter                               0x08003d3b   Thumb Code    28  os_core.o(.text)
    OSIntExit                                0x08003d71   Thumb Code   114  os_core.o(.text)
    OSSchedLock                              0x08003de3   Thumb Code    50  os_core.o(.text)
    OS_Sched                                 0x08003e15   Thumb Code    88  os_core.o(.text)
    OSSchedUnlock                            0x08003e6d   Thumb Code    84  os_core.o(.text)
    OSStart                                  0x08003ec1   Thumb Code    48  os_core.o(.text)
    OSTimeTick                               0x08003ef1   Thumb Code   190  os_core.o(.text)
    OSVersion                                0x08003faf   Thumb Code     6  os_core.o(.text)
    OS_Dummy                                 0x08003fb5   Thumb Code     2  os_core.o(.text)
    OS_EventTaskRemove                       0x08003fb7   Thumb Code    36  os_core.o(.text)
    OS_EventTaskRdy                          0x08003fdb   Thumb Code   198  os_core.o(.text)
    OS_EventTaskWait                         0x080040a1   Thumb Code    98  os_core.o(.text)
    OS_EventWaitListInit                     0x08004103   Thumb Code    28  os_core.o(.text)
    OS_MemCopy                               0x0800411f   Thumb Code    20  os_core.o(.text)
    OS_StrCopy                               0x08004133   Thumb Code    28  os_core.o(.text)
    OS_StrLen                                0x0800414f   Thumb Code    20  os_core.o(.text)
    OS_TCBInit                               0x08004163   Thumb Code   216  os_core.o(.text)
    OSMutexAccept                            0x08004259   Thumb Code   134  os_mutex.o(.text)
    OSMutexCreate                            0x080042df   Thumb Code   136  os_mutex.o(.text)
    OSMutexDel                               0x080043cb   Thumb Code   268  os_mutex.o(.text)
    OSMutexPend                              0x080044d7   Thumb Code   528  os_mutex.o(.text)
    OSMutexPost                              0x080046e7   Thumb Code   186  os_mutex.o(.text)
    OSMutexQuery                             0x080047a1   Thumb Code   108  os_mutex.o(.text)
    OSSemAccept                              0x08004819   Thumb Code    44  os_sem.o(.text)
    OSSemCreate                              0x08004845   Thumb Code    70  os_sem.o(.text)
    OSSemDel                                 0x0800488b   Thumb Code   202  os_sem.o(.text)
    OSSemPend                                0x08004955   Thumb Code   216  os_sem.o(.text)
    OSSemPendAbort                           0x08004a2d   Thumb Code   128  os_sem.o(.text)
    OSSemPost                                0x08004aad   Thumb Code    88  os_sem.o(.text)
    OSSemQuery                               0x08004b05   Thumb Code    82  os_sem.o(.text)
    OSSemSet                                 0x08004b57   Thumb Code    68  os_sem.o(.text)
    OSTaskChangePrio                         0x08004bad   Thumb Code   300  os_task.o(.text)
    OSTaskCreate                             0x08004cd9   Thumb Code   150  os_task.o(.text)
    OSTaskDel                                0x08004d6f   Thumb Code   266  os_task.o(.text)
    OSTaskDelReq                             0x08004e79   Thumb Code    96  os_task.o(.text)
    OSTaskNameGet                            0x08004ed9   Thumb Code   112  os_task.o(.text)
    OSTaskNameSet                            0x08004f49   Thumb Code   140  os_task.o(.text)
    OSTaskResume                             0x08004fd5   Thumb Code   144  os_task.o(.text)
    OSTaskSuspend                            0x08005065   Thumb Code   138  os_task.o(.text)
    OSTaskQuery                              0x080050ef   Thumb Code    80  os_task.o(.text)
    OSTimeDly                                0x08005155   Thumb Code    90  os_time.o(.text)
    OSTimeDlyHMSM                            0x080051af   Thumb Code   110  os_time.o(.text)
    OSTimeDlyResume                          0x0800521d   Thumb Code   154  os_time.o(.text)
    OSTimeGet                                0x080052b7   Thumb Code    24  os_time.o(.text)
    OSTimeSet                                0x080052cf   Thumb Code    24  os_time.o(.text)
    CPU_BitBandClr                           0x08005301   Thumb Code    58  cpu_c.o(.text)
    CPU_BitBandSet                           0x0800533b   Thumb Code    58  cpu_c.o(.text)
    CPU_IntSrcDis                            0x08005375   Thumb Code   244  cpu_c.o(.text)
    CPU_IntSrcEn                             0x08005469   Thumb Code   244  cpu_c.o(.text)
    CPU_IntSrcPrioSet                        0x0800555d   Thumb Code   382  cpu_c.o(.text)
    CPU_IntSrcPrioGet                        0x080056db   Thumb Code   340  cpu_c.o(.text)
    CPU_IntDis                               0x08005839   Thumb Code     0  cpu_a.o(.text)
    CPU_IntEn                                0x0800583d   Thumb Code     0  cpu_a.o(.text)
    CPU_SR_Save                              0x08005841   Thumb Code     0  cpu_a.o(.text)
    CPU_SR_Restore                           0x08005849   Thumb Code     0  cpu_a.o(.text)
    CPU_CntLeadZeros                         0x0800584f   Thumb Code     0  cpu_a.o(.text)
    CPU_RevBits                              0x08005855   Thumb Code     0  cpu_a.o(.text)
    CPU_WaitForInt                           0x0800585b   Thumb Code     0  cpu_a.o(.text)
    CPU_WaitForExcept                        0x0800585f   Thumb Code     0  cpu_a.o(.text)
    OS_CPU_SR_Save                           0x08005865   Thumb Code     0  os_cpu_a.o(.text)
    OS_CPU_SR_Restore                        0x0800586d   Thumb Code     0  os_cpu_a.o(.text)
    OSStartHighRdy                           0x08005873   Thumb Code     0  os_cpu_a.o(.text)
    OSCtxSw                                  0x08005893   Thumb Code     0  os_cpu_a.o(.text)
    OSIntCtxSw                               0x0800589d   Thumb Code     0  os_cpu_a.o(.text)
    OS_CPU_PendSVHandler                     0x080058a7   Thumb Code     0  os_cpu_a.o(.text)
    OSTaskStkInit                            0x080058fd   Thumb Code   154  os_cpu_c.o(.text)
    OS_CPU_SysTickHandler                    0x08005997   Thumb Code    34  os_cpu_c.o(.text)
    OS_CPU_SysTickInit                       0x080059b9   Thumb Code    50  os_cpu_c.o(.text)
    OSMboxAccept                             0x080059f1   Thumb Code    38  os_mbox.o(.text)
    OSMboxCreate                             0x08005a17   Thumb Code    70  os_mbox.o(.text)
    OSMboxDel                                0x08005a5d   Thumb Code   202  os_mbox.o(.text)
    OSMboxPend                               0x08005b27   Thumb Code   238  os_mbox.o(.text)
    OSMboxPendAbort                          0x08005c15   Thumb Code   128  os_mbox.o(.text)
    OSMboxPost                               0x08005c95   Thumb Code    80  os_mbox.o(.text)
    OSMboxPostOpt                            0x08005ce5   Thumb Code   120  os_mbox.o(.text)
    OSMboxQuery                              0x08005d5d   Thumb Code    76  os_mbox.o(.text)
    OSQAccept                                0x08005db9   Thumb Code    90  os_q.o(.text)
    OSQCreate                                0x08005e13   Thumb Code   142  os_q.o(.text)
    OSQDel                                   0x08005ea1   Thumb Code   238  os_q.o(.text)
    OSQFlush                                 0x08005f8f   Thumb Code    36  os_q.o(.text)
    OSQPend                                  0x08005fb3   Thumb Code   266  os_q.o(.text)
    OSQPendAbort                             0x080060bd   Thumb Code   128  os_q.o(.text)
    OSQPost                                  0x0800613d   Thumb Code   114  os_q.o(.text)
    OSQPostFront                             0x080061af   Thumb Code   136  os_q.o(.text)
    OSQPostOpt                               0x08006237   Thumb Code   182  os_q.o(.text)
    OSQQuery                                 0x080062ed   Thumb Code   100  os_q.o(.text)
    OS_QInit                                 0x08006351   Thumb Code    48  os_q.o(.text)
    RCC_Config                               0x08006389   Thumb Code   108  main.o(.text)
    main                                     0x080063f5   Thumb Code    64  main.o(.text)
    LocalDeviceIdGet                         0x08006449   Thumb Code     6  systeminit.o(.text)
    LocalDeviceIdSet                         0x0800644f   Thumb Code    80  systeminit.o(.text)
    LocalConfigParaGet                       0x0800649f   Thumb Code     4  systeminit.o(.text)
    Parameter_Init                           0x080064a3   Thumb Code   298  systeminit.o(.text)
    GlobalVars_Init                          0x080065cd   Thumb Code    46  systeminit.o(.text)
    MZ_SYS_Init                              0x080065fb   Thumb Code   314  systeminit.o(.text)
    Dispatcher_Init                          0x080067e1   Thumb Code    18  dispatcher.o(.text)
    Dispatcher_Task                          0x080067f3   Thumb Code    94  dispatcher.o(.text)
    Wireless_ResetIO                         0x08006865   Thumb Code     6  wirelessapp.o(.text)
    WirelessApp_Init                         0x0800686b   Thumb Code    92  wirelessapp.o(.text)
    SetLocalDeviceConfig                     0x080068c7   Thumb Code    40  wirelessapp.o(.text)
    WirelessDebug                            0x080068ef   Thumb Code     2  wirelessapp.o(.text)
    WirelessApp_RcvMsg                       0x080069db   Thumb Code  2350  wirelessapp.o(.text)
    WirelessApp_ForwMsg                      0x08007309   Thumb Code     8  wirelessapp.o(.text)
    Wlan4G_Init                              0x08007315   Thumb Code    72  wlan4gapp.o(.text)
    Wlan4G_ResetIO                           0x0800735d   Thumb Code     6  wlan4gapp.o(.text)
    Wlan4G_Stat                              0x08007363   Thumb Code     6  wlan4gapp.o(.text)
    Wlan4G_Errinfo                           0x08007369   Thumb Code     2  wlan4gapp.o(.text)
    Wlan4G_RecvMsg                           0x0800736b   Thumb Code   562  wlan4gapp.o(.text)
    DisplayComm_Init                         0x080075b5   Thumb Code    62  displayprotocol.o(.text)
    DisplayAnalyseCommPacket                 0x080075f3   Thumb Code    36  displayprotocol.o(.text)
    DisplayCommRecv_Task                     0x08007617   Thumb Code    74  displayprotocol.o(.text)
    DisplaySendCommPacket                    0x08007661   Thumb Code    56  displayprotocol.o(.text)
    DisplayCommSend_Task                     0x08007699   Thumb Code   102  displayprotocol.o(.text)
    DisplayParaRefresh_Task                  0x080076ff   Thumb Code   170  displayprotocol.o(.text)
    DisplayComm_SendData                     0x080077a9   Thumb Code   220  displayprotocol.o(.text)
    DisplayCommTextSend                      0x08007885   Thumb Code    32  displayprotocol.o(.text)
    DisplayCommIconSend                      0x080078a5   Thumb Code    40  displayprotocol.o(.text)
    DisplayCommTextNumberSend                0x080078cd   Thumb Code   190  displayprotocol.o(.text)
    DisplayCommNumSend                       0x0800798b   Thumb Code    82  displayprotocol.o(.text)
    DisplayCommNumBufSend                    0x080079dd   Thumb Code    78  displayprotocol.o(.text)
    DisplayCommNum32Send                     0x08007a2b   Thumb Code    48  displayprotocol.o(.text)
    DisplayCommNum32BufSend                  0x08007a5b   Thumb Code   102  displayprotocol.o(.text)
    DisplayCommTimeSend                      0x08007ac1   Thumb Code    44  displayprotocol.o(.text)
    DisplayCommPopup                         0x08007aed   Thumb Code    30  displayprotocol.o(.text)
    DisplayCommJumpToPic                     0x08007b0b   Thumb Code    32  displayprotocol.o(.text)
    DisplayCommSetBacklight                  0x08007b2b   Thumb Code    40  displayprotocol.o(.text)
    DisplayCommReadBacklight                 0x08007b53   Thumb Code    28  displayprotocol.o(.text)
    DisplayCommSetColor                      0x08007b6f   Thumb Code    38  displayprotocol.o(.text)
    DisplayCommSetCurveColor                 0x08007b95   Thumb Code    38  displayprotocol.o(.text)
    DisplayCommSetScreenBps                  0x08007bbb   Thumb Code    30  displayprotocol.o(.text)
    DisplayCommSetTP_LED                     0x08007bd9   Thumb Code    38  displayprotocol.o(.text)
    DisplayCommSetTP_LEDBackLight            0x08007bff   Thumb Code    40  displayprotocol.o(.text)
    DisplayCommSetTP_LEDScrProLight          0x08007c27   Thumb Code    40  displayprotocol.o(.text)
    DisplayCommSetTP_LEDScrProTime           0x08007c4f   Thumb Code    30  displayprotocol.o(.text)
    DisplayCommSetCONFIG_EN                  0x08007c6d   Thumb Code    38  displayprotocol.o(.text)
    DisplayCommSetScreen                     0x08007c93   Thumb Code    10  displayprotocol.o(.text)
    DisplayCommCurveSend                     0x08007c9d   Thumb Code    32  displayprotocol.o(.text)
    DisplayCommCleanCurveSend                0x08007cbd   Thumb Code    44  displayprotocol.o(.text)
    DisplayCommSetTime                       0x08007ce9   Thumb Code    88  displayprotocol.o(.text)
    NMIException                             0x08007d41   Thumb Code     2  stm32f10x_it.o(.text)
    HardFaultException                       0x08007d43   Thumb Code    16  stm32f10x_it.o(.text)
    MemManageException                       0x08007d53   Thumb Code     4  stm32f10x_it.o(.text)
    BusFaultException                        0x08007d57   Thumb Code     4  stm32f10x_it.o(.text)
    UsageFaultException                      0x08007d5b   Thumb Code     4  stm32f10x_it.o(.text)
    DebugMonitor                             0x08007d5f   Thumb Code     2  stm32f10x_it.o(.text)
    SVCHandler                               0x08007d61   Thumb Code     2  stm32f10x_it.o(.text)
    PendSVC                                  0x08007d63   Thumb Code     2  stm32f10x_it.o(.text)
    SysTickHandler                           0x08007d65   Thumb Code     2  stm32f10x_it.o(.text)
    WWDG_IRQHandler                          0x08007d67   Thumb Code     2  stm32f10x_it.o(.text)
    PVD_IRQHandler                           0x08007d69   Thumb Code     2  stm32f10x_it.o(.text)
    TAMPER_IRQHandler                        0x08007d6b   Thumb Code     2  stm32f10x_it.o(.text)
    RTC_IRQHandler                           0x08007d6d   Thumb Code    44  stm32f10x_it.o(.text)
    FLASH_IRQHandler                         0x08007d99   Thumb Code     2  stm32f10x_it.o(.text)
    RCC_IRQHandler                           0x08007d9b   Thumb Code     2  stm32f10x_it.o(.text)
    EXTI0_IRQHandler                         0x08007d9d   Thumb Code     2  stm32f10x_it.o(.text)
    EXTI1_IRQHandler                         0x08007d9f   Thumb Code     2  stm32f10x_it.o(.text)
    EXTI2_IRQHandler                         0x08007da1   Thumb Code     2  stm32f10x_it.o(.text)
    EXTI3_IRQHandler                         0x08007da3   Thumb Code     2  stm32f10x_it.o(.text)
    EXTI4_IRQHandler                         0x08007da5   Thumb Code     2  stm32f10x_it.o(.text)
    DMA1_Channel1_IRQHandler                 0x08007da7   Thumb Code     2  stm32f10x_it.o(.text)
    DMA1_Channel2_IRQHandler                 0x08007da9   Thumb Code     2  stm32f10x_it.o(.text)
    DMA1_Channel3_IRQHandler                 0x08007dab   Thumb Code     2  stm32f10x_it.o(.text)
    DMA1_Channel4_IRQHandler                 0x08007dad   Thumb Code     2  stm32f10x_it.o(.text)
    DMA1_Channel5_IRQHandler                 0x08007daf   Thumb Code     2  stm32f10x_it.o(.text)
    DMA1_Channel6_IRQHandler                 0x08007db1   Thumb Code     2  stm32f10x_it.o(.text)
    DMA1_Channel7_IRQHandler                 0x08007db3   Thumb Code     2  stm32f10x_it.o(.text)
    ADC1_2_IRQHandler                        0x08007db5   Thumb Code     2  stm32f10x_it.o(.text)
    USB_HP_CAN1_TX_IRQHandler                0x08007db7   Thumb Code     2  stm32f10x_it.o(.text)
    USB_LP_CAN1_RX0_IRQHandler               0x08007db9   Thumb Code     2  stm32f10x_it.o(.text)
    CAN_RX1_IRQHandler                       0x08007dbb   Thumb Code     2  stm32f10x_it.o(.text)
    CAN_SCE_IRQHandler                       0x08007dbd   Thumb Code     2  stm32f10x_it.o(.text)
    EXTI9_5_IRQHandler                       0x08007dbf   Thumb Code     2  stm32f10x_it.o(.text)
    TIM1_BRK_IRQHandler                      0x08007dc1   Thumb Code     2  stm32f10x_it.o(.text)
    TIM1_UP_IRQHandler                       0x08007dc3   Thumb Code     2  stm32f10x_it.o(.text)
    TIM1_TRG_COM_IRQHandler                  0x08007dc5   Thumb Code     2  stm32f10x_it.o(.text)
    TIM1_CC_IRQHandler                       0x08007dc7   Thumb Code     2  stm32f10x_it.o(.text)
    TIM2_IRQHandler                          0x08007dc9   Thumb Code     2  stm32f10x_it.o(.text)
    TIM3_IRQHandler                          0x08007dcb   Thumb Code     2  stm32f10x_it.o(.text)
    TIM4_IRQHandler                          0x08007dcd   Thumb Code     2  stm32f10x_it.o(.text)
    I2C1_EV_IRQHandler                       0x08007dcf   Thumb Code     2  stm32f10x_it.o(.text)
    I2C1_ER_IRQHandler                       0x08007dd1   Thumb Code     2  stm32f10x_it.o(.text)
    I2C2_EV_IRQHandler                       0x08007dd3   Thumb Code     2  stm32f10x_it.o(.text)
    I2C2_ER_IRQHandler                       0x08007dd5   Thumb Code     2  stm32f10x_it.o(.text)
    SPI1_IRQHandler                          0x08007dd7   Thumb Code     2  stm32f10x_it.o(.text)
    SPI2_IRQHandler                          0x08007dd9   Thumb Code     2  stm32f10x_it.o(.text)
    USART1_IRQHandler                        0x08007ddb   Thumb Code     8  stm32f10x_it.o(.text)
    USART2_IRQHandler                        0x08007de3   Thumb Code   346  stm32f10x_it.o(.text)
    USART3_IRQHandler                        0x08007f3d   Thumb Code     8  stm32f10x_it.o(.text)
    EXTI15_10_IRQHandler                     0x08007f45   Thumb Code     2  stm32f10x_it.o(.text)
    RTCAlarm_IRQHandler                      0x08007f47   Thumb Code     2  stm32f10x_it.o(.text)
    USBWakeUp_IRQHandler                     0x08007f49   Thumb Code     2  stm32f10x_it.o(.text)
    TIM8_BRK_IRQHandler                      0x08007f4b   Thumb Code     2  stm32f10x_it.o(.text)
    TIM8_UP_IRQHandler                       0x08007f4d   Thumb Code     2  stm32f10x_it.o(.text)
    TIM8_TRG_COM_IRQHandler                  0x08007f4f   Thumb Code     2  stm32f10x_it.o(.text)
    TIM8_CC_IRQHandler                       0x08007f51   Thumb Code     2  stm32f10x_it.o(.text)
    ADC3_IRQHandler                          0x08007f53   Thumb Code     2  stm32f10x_it.o(.text)
    FSMC_IRQHandler                          0x08007f55   Thumb Code     2  stm32f10x_it.o(.text)
    SDIO_IRQHandler                          0x08007f57   Thumb Code     2  stm32f10x_it.o(.text)
    TIM5_IRQHandler                          0x08007f59   Thumb Code     2  stm32f10x_it.o(.text)
    SPI3_IRQHandler                          0x08007f5b   Thumb Code     2  stm32f10x_it.o(.text)
    UART4_IRQHandler                         0x08007f5d   Thumb Code    70  stm32f10x_it.o(.text)
    UART5_IRQHandler                         0x08007fa3   Thumb Code     2  stm32f10x_it.o(.text)
    TIM6_IRQHandler                          0x08007fa5   Thumb Code     2  stm32f10x_it.o(.text)
    TIM7_IRQHandler                          0x08007fa7   Thumb Code     2  stm32f10x_it.o(.text)
    DMA2_Channel1_IRQHandler                 0x08007fa9   Thumb Code     2  stm32f10x_it.o(.text)
    DMA2_Channel2_IRQHandler                 0x08007fab   Thumb Code     2  stm32f10x_it.o(.text)
    DMA2_Channel3_IRQHandler                 0x08007fad   Thumb Code     2  stm32f10x_it.o(.text)
    DMA2_Channel4_5_IRQHandler               0x08007faf   Thumb Code     2  stm32f10x_it.o(.text)
    NVIC_PriorityGroupConfig                 0x08007fdd   Thumb Code    10  misc.o(.text)
    NVIC_Init                                0x08007fe7   Thumb Code   100  misc.o(.text)
    NVIC_SetVectorTable                      0x0800804b   Thumb Code    14  misc.o(.text)
    NVIC_SystemLPConfig                      0x08008059   Thumb Code    34  misc.o(.text)
    SysTick_CLKSourceConfig                  0x0800807b   Thumb Code    40  misc.o(.text)
    BKP_DeInit                               0x080080b9   Thumb Code    16  stm32f10x_bkp.o(.text)
    BKP_TamperPinLevelConfig                 0x080080c9   Thumb Code     6  stm32f10x_bkp.o(.text)
    BKP_TamperPinCmd                         0x080080cf   Thumb Code     8  stm32f10x_bkp.o(.text)
    BKP_ITConfig                             0x080080d7   Thumb Code     8  stm32f10x_bkp.o(.text)
    BKP_RTCOutputConfig                      0x080080df   Thumb Code    22  stm32f10x_bkp.o(.text)
    BKP_SetRTCCalibrationValue               0x080080f5   Thumb Code    22  stm32f10x_bkp.o(.text)
    BKP_WriteBackupRegister                  0x0800810b   Thumb Code    24  stm32f10x_bkp.o(.text)
    BKP_ReadBackupRegister                   0x08008123   Thumb Code    26  stm32f10x_bkp.o(.text)
    BKP_GetFlagStatus                        0x0800813d   Thumb Code    10  stm32f10x_bkp.o(.text)
    BKP_ClearFlag                            0x08008147   Thumb Code    18  stm32f10x_bkp.o(.text)
    BKP_GetITStatus                          0x08008159   Thumb Code    10  stm32f10x_bkp.o(.text)
    BKP_ClearITPendingBit                    0x08008163   Thumb Code    18  stm32f10x_bkp.o(.text)
    FLASH_SetLatency                         0x0800817d   Thumb Code    18  stm32f10x_flash.o(.text)
    FLASH_HalfCycleAccessCmd                 0x0800818f   Thumb Code    22  stm32f10x_flash.o(.text)
    FLASH_PrefetchBufferCmd                  0x080081a5   Thumb Code    22  stm32f10x_flash.o(.text)
    FLASH_Unlock                             0x080081bb   Thumb Code    12  stm32f10x_flash.o(.text)
    FLASH_UnlockBank1                        0x080081c7   Thumb Code    12  stm32f10x_flash.o(.text)
    FLASH_Lock                               0x080081d3   Thumb Code    14  stm32f10x_flash.o(.text)
    FLASH_LockBank1                          0x080081e1   Thumb Code    14  stm32f10x_flash.o(.text)
    FLASH_GetBank1Status                     0x080081ef   Thumb Code    48  stm32f10x_flash.o(.text)
    FLASH_WaitForLastOperation               0x0800821f   Thumb Code    38  stm32f10x_flash.o(.text)
    FLASH_ErasePage                          0x08008245   Thumb Code    72  stm32f10x_flash.o(.text)
    FLASH_EraseAllPages                      0x0800828d   Thumb Code    68  stm32f10x_flash.o(.text)
    FLASH_WaitForLastBank1Operation          0x080082d1   Thumb Code    38  stm32f10x_flash.o(.text)
    FLASH_EraseAllBank1Pages                 0x080082f7   Thumb Code    68  stm32f10x_flash.o(.text)
    FLASH_GetReadOutProtectionStatus         0x0800833b   Thumb Code    20  stm32f10x_flash.o(.text)
    FLASH_EraseOptionBytes                   0x0800834f   Thumb Code   150  stm32f10x_flash.o(.text)
    FLASH_ProgramWord                        0x080083e5   Thumb Code   102  stm32f10x_flash.o(.text)
    FLASH_ProgramHalfWord                    0x0800844b   Thumb Code    60  stm32f10x_flash.o(.text)
    FLASH_ProgramOptionByteData              0x08008487   Thumb Code    72  stm32f10x_flash.o(.text)
    FLASH_EnableWriteProtection              0x080084cf   Thumb Code   200  stm32f10x_flash.o(.text)
    FLASH_ReadOutProtection                  0x08008597   Thumb Code   156  stm32f10x_flash.o(.text)
    FLASH_UserOptionByteConfig               0x08008633   Thumb Code    88  stm32f10x_flash.o(.text)
    FLASH_GetUserOptionByte                  0x0800868b   Thumb Code     8  stm32f10x_flash.o(.text)
    FLASH_GetWriteProtectionOptionByte       0x08008693   Thumb Code     6  stm32f10x_flash.o(.text)
    FLASH_GetPrefetchBufferStatus            0x08008699   Thumb Code    20  stm32f10x_flash.o(.text)
    FLASH_ITConfig                           0x080086ad   Thumb Code    26  stm32f10x_flash.o(.text)
    FLASH_GetFlagStatus                      0x080086c7   Thumb Code    42  stm32f10x_flash.o(.text)
    FLASH_ClearFlag                          0x080086f1   Thumb Code     6  stm32f10x_flash.o(.text)
    FLASH_GetStatus                          0x080086f7   Thumb Code    48  stm32f10x_flash.o(.text)
    GPIO_DeInit                              0x08008739   Thumb Code   172  stm32f10x_gpio.o(.text)
    GPIO_AFIODeInit                          0x080087e5   Thumb Code    20  stm32f10x_gpio.o(.text)
    GPIO_Init                                0x080087f9   Thumb Code   278  stm32f10x_gpio.o(.text)
    GPIO_StructInit                          0x0800890f   Thumb Code    16  stm32f10x_gpio.o(.text)
    GPIO_ReadInputDataBit                    0x0800891f   Thumb Code    18  stm32f10x_gpio.o(.text)
    GPIO_ReadInputData                       0x08008931   Thumb Code     8  stm32f10x_gpio.o(.text)
    GPIO_ReadOutputDataBit                   0x08008939   Thumb Code    18  stm32f10x_gpio.o(.text)
    GPIO_ReadOutputData                      0x0800894b   Thumb Code     8  stm32f10x_gpio.o(.text)
    GPIO_SetBits                             0x08008953   Thumb Code     4  stm32f10x_gpio.o(.text)
    GPIO_ResetBits                           0x08008957   Thumb Code     4  stm32f10x_gpio.o(.text)
    GPIO_WriteBit                            0x0800895b   Thumb Code    10  stm32f10x_gpio.o(.text)
    GPIO_Write                               0x08008965   Thumb Code     4  stm32f10x_gpio.o(.text)
    GPIO_PinLockConfig                       0x08008969   Thumb Code    18  stm32f10x_gpio.o(.text)
    GPIO_EventOutputConfig                   0x0800897b   Thumb Code    26  stm32f10x_gpio.o(.text)
    GPIO_EventOutputCmd                      0x08008995   Thumb Code     6  stm32f10x_gpio.o(.text)
    GPIO_PinRemapConfig                      0x0800899b   Thumb Code   138  stm32f10x_gpio.o(.text)
    GPIO_EXTILineConfig                      0x08008a25   Thumb Code    66  stm32f10x_gpio.o(.text)
    GPIO_ETH_MediaInterfaceConfig            0x08008a67   Thumb Code     8  stm32f10x_gpio.o(.text)
    PWR_DeInit                               0x08008a95   Thumb Code    22  stm32f10x_pwr.o(.text)
    PWR_BackupAccessCmd                      0x08008aab   Thumb Code     6  stm32f10x_pwr.o(.text)
    PWR_PVDCmd                               0x08008ab1   Thumb Code     6  stm32f10x_pwr.o(.text)
    PWR_PVDLevelConfig                       0x08008ab7   Thumb Code    18  stm32f10x_pwr.o(.text)
    PWR_WakeUpPinCmd                         0x08008ac9   Thumb Code     8  stm32f10x_pwr.o(.text)
    PWR_EnterSTOPMode                        0x08008ad1   Thumb Code    54  stm32f10x_pwr.o(.text)
    PWR_EnterSTANDBYMode                     0x08008b07   Thumb Code    42  stm32f10x_pwr.o(.text)
    PWR_GetFlagStatus                        0x08008b31   Thumb Code    20  stm32f10x_pwr.o(.text)
    PWR_ClearFlag                            0x08008b45   Thumb Code    14  stm32f10x_pwr.o(.text)
    RCC_DeInit                               0x08008b61   Thumb Code    64  stm32f10x_rcc.o(.text)
    RCC_HSEConfig                            0x08008ba1   Thumb Code    70  stm32f10x_rcc.o(.text)
    RCC_GetFlagStatus                        0x08008be7   Thumb Code    56  stm32f10x_rcc.o(.text)
    RCC_WaitForHSEStartUp                    0x08008c1f   Thumb Code    56  stm32f10x_rcc.o(.text)
    RCC_AdjustHSICalibrationValue            0x08008c57   Thumb Code    20  stm32f10x_rcc.o(.text)
    RCC_HSICmd                               0x08008c6b   Thumb Code     6  stm32f10x_rcc.o(.text)
    RCC_PLLConfig                            0x08008c71   Thumb Code    24  stm32f10x_rcc.o(.text)
    RCC_PLLCmd                               0x08008c89   Thumb Code     6  stm32f10x_rcc.o(.text)
    RCC_SYSCLKConfig                         0x08008c8f   Thumb Code    18  stm32f10x_rcc.o(.text)
    RCC_GetSYSCLKSource                      0x08008ca1   Thumb Code    10  stm32f10x_rcc.o(.text)
    RCC_HCLKConfig                           0x08008cab   Thumb Code    18  stm32f10x_rcc.o(.text)
    RCC_PCLK1Config                          0x08008cbd   Thumb Code    18  stm32f10x_rcc.o(.text)
    RCC_PCLK2Config                          0x08008ccf   Thumb Code    20  stm32f10x_rcc.o(.text)
    RCC_ITConfig                             0x08008ce3   Thumb Code    26  stm32f10x_rcc.o(.text)
    RCC_USBCLKConfig                         0x08008cfd   Thumb Code     8  stm32f10x_rcc.o(.text)
    RCC_ADCCLKConfig                         0x08008d05   Thumb Code    18  stm32f10x_rcc.o(.text)
    RCC_LSEConfig                            0x08008d17   Thumb Code    50  stm32f10x_rcc.o(.text)
    RCC_LSICmd                               0x08008d49   Thumb Code     6  stm32f10x_rcc.o(.text)
    RCC_RTCCLKConfig                         0x08008d4f   Thumb Code    12  stm32f10x_rcc.o(.text)
    RCC_RTCCLKCmd                            0x08008d5b   Thumb Code     8  stm32f10x_rcc.o(.text)
    RCC_GetClocksFreq                        0x08008d63   Thumb Code   192  stm32f10x_rcc.o(.text)
    RCC_AHBPeriphClockCmd                    0x08008e23   Thumb Code    26  stm32f10x_rcc.o(.text)
    RCC_APB2PeriphClockCmd                   0x08008e3d   Thumb Code    26  stm32f10x_rcc.o(.text)
    RCC_APB1PeriphClockCmd                   0x08008e57   Thumb Code    26  stm32f10x_rcc.o(.text)
    RCC_APB2PeriphResetCmd                   0x08008e71   Thumb Code    26  stm32f10x_rcc.o(.text)
    RCC_APB1PeriphResetCmd                   0x08008e8b   Thumb Code    26  stm32f10x_rcc.o(.text)
    RCC_BackupResetCmd                       0x08008ea5   Thumb Code     8  stm32f10x_rcc.o(.text)
    RCC_ClockSecuritySystemCmd               0x08008ead   Thumb Code     6  stm32f10x_rcc.o(.text)
    RCC_MCOConfig                            0x08008eb3   Thumb Code     6  stm32f10x_rcc.o(.text)
    RCC_ClearFlag                            0x08008eb9   Thumb Code    14  stm32f10x_rcc.o(.text)
    RCC_GetITStatus                          0x08008ec7   Thumb Code    20  stm32f10x_rcc.o(.text)
    RCC_ClearITPendingBit                    0x08008edb   Thumb Code     6  stm32f10x_rcc.o(.text)
    RTC_ITConfig                             0x08008f05   Thumb Code    26  stm32f10x_rtc.o(.text)
    RTC_EnterConfigMode                      0x08008f1f   Thumb Code    18  stm32f10x_rtc.o(.text)
    RTC_ExitConfigMode                       0x08008f31   Thumb Code    20  stm32f10x_rtc.o(.text)
    RTC_GetCounter                           0x08008f45   Thumb Code    18  stm32f10x_rtc.o(.text)
    RTC_SetCounter                           0x08008f57   Thumb Code    26  stm32f10x_rtc.o(.text)
    RTC_SetPrescaler                         0x08008f71   Thumb Code    28  stm32f10x_rtc.o(.text)
    RTC_SetAlarm                             0x08008f8d   Thumb Code    26  stm32f10x_rtc.o(.text)
    RTC_GetDivider                           0x08008fa7   Thumb Code    22  stm32f10x_rtc.o(.text)
    RTC_WaitForLastTask                      0x08008fbd   Thumb Code    18  stm32f10x_rtc.o(.text)
    RTC_WaitForSynchro                       0x08008fcf   Thumb Code    36  stm32f10x_rtc.o(.text)
    RTC_GetFlagStatus                        0x08008ff3   Thumb Code    22  stm32f10x_rtc.o(.text)
    RTC_ClearFlag                            0x08009009   Thumb Code    16  stm32f10x_rtc.o(.text)
    RTC_GetITStatus                          0x08009019   Thumb Code    32  stm32f10x_rtc.o(.text)
    RTC_ClearITPendingBit                    0x08009039   Thumb Code    16  stm32f10x_rtc.o(.text)
    SPI_I2S_DeInit                           0x0800904d   Thumb Code    76  stm32f10x_spi.o(.text)
    SPI_Init                                 0x08009099   Thumb Code    60  stm32f10x_spi.o(.text)
    I2S_Init                                 0x080090d5   Thumb Code   226  stm32f10x_spi.o(.text)
    SPI_StructInit                           0x080091b7   Thumb Code    24  stm32f10x_spi.o(.text)
    I2S_StructInit                           0x080091cf   Thumb Code    20  stm32f10x_spi.o(.text)
    SPI_Cmd                                  0x080091e3   Thumb Code    24  stm32f10x_spi.o(.text)
    I2S_Cmd                                  0x080091fb   Thumb Code    24  stm32f10x_spi.o(.text)
    SPI_I2S_ITConfig                         0x08009213   Thumb Code    32  stm32f10x_spi.o(.text)
    SPI_I2S_DMACmd                           0x08009233   Thumb Code    18  stm32f10x_spi.o(.text)
    SPI_I2S_SendData                         0x08009245   Thumb Code     4  stm32f10x_spi.o(.text)
    SPI_I2S_ReceiveData                      0x08009249   Thumb Code     6  stm32f10x_spi.o(.text)
    SPI_NSSInternalSoftwareConfig            0x0800924f   Thumb Code    30  stm32f10x_spi.o(.text)
    SPI_SSOutputCmd                          0x0800926d   Thumb Code    24  stm32f10x_spi.o(.text)
    SPI_DataSizeConfig                       0x08009285   Thumb Code    18  stm32f10x_spi.o(.text)
    SPI_TransmitCRC                          0x08009297   Thumb Code    10  stm32f10x_spi.o(.text)
    SPI_CalculateCRC                         0x080092a1   Thumb Code    24  stm32f10x_spi.o(.text)
    SPI_GetCRC                               0x080092b9   Thumb Code    16  stm32f10x_spi.o(.text)
    SPI_GetCRCPolynomial                     0x080092c9   Thumb Code     6  stm32f10x_spi.o(.text)
    SPI_BiDirectionalLineConfig              0x080092cf   Thumb Code    28  stm32f10x_spi.o(.text)
    SPI_I2S_GetFlagStatus                    0x080092eb   Thumb Code    18  stm32f10x_spi.o(.text)
    SPI_I2S_ClearFlag                        0x080092fd   Thumb Code     6  stm32f10x_spi.o(.text)
    SPI_I2S_GetITStatus                      0x08009303   Thumb Code    52  stm32f10x_spi.o(.text)
    SPI_I2S_ClearITPendingBit                0x08009337   Thumb Code    20  stm32f10x_spi.o(.text)
    USART_DeInit                             0x08009359   Thumb Code   134  stm32f10x_usart.o(.text)
    USART_Init                               0x080093df   Thumb Code   210  stm32f10x_usart.o(.text)
    USART_StructInit                         0x080094b1   Thumb Code    24  stm32f10x_usart.o(.text)
    USART_ClockInit                          0x080094c9   Thumb Code    34  stm32f10x_usart.o(.text)
    USART_ClockStructInit                    0x080094eb   Thumb Code    12  stm32f10x_usart.o(.text)
    USART_Cmd                                0x080094f7   Thumb Code    24  stm32f10x_usart.o(.text)
    USART_ITConfig                           0x0800950f   Thumb Code    74  stm32f10x_usart.o(.text)
    USART_DMACmd                             0x08009559   Thumb Code    18  stm32f10x_usart.o(.text)
    USART_SetAddress                         0x0800956b   Thumb Code    18  stm32f10x_usart.o(.text)
    USART_WakeUpConfig                       0x0800957d   Thumb Code    18  stm32f10x_usart.o(.text)
    USART_ReceiverWakeUpCmd                  0x0800958f   Thumb Code    24  stm32f10x_usart.o(.text)
    USART_LINBreakDetectLengthConfig         0x080095a7   Thumb Code    18  stm32f10x_usart.o(.text)
    USART_LINCmd                             0x080095b9   Thumb Code    24  stm32f10x_usart.o(.text)
    USART_SendData                           0x080095d1   Thumb Code     8  stm32f10x_usart.o(.text)
    USART_ReceiveData                        0x080095d9   Thumb Code    10  stm32f10x_usart.o(.text)
    USART_SendBreak                          0x080095e3   Thumb Code    10  stm32f10x_usart.o(.text)
    USART_SetGuardTime                       0x080095ed   Thumb Code    16  stm32f10x_usart.o(.text)
    USART_SetPrescaler                       0x080095fd   Thumb Code    16  stm32f10x_usart.o(.text)
    USART_SmartCardCmd                       0x0800960d   Thumb Code    24  stm32f10x_usart.o(.text)
    USART_SmartCardNACKCmd                   0x08009625   Thumb Code    24  stm32f10x_usart.o(.text)
    USART_HalfDuplexCmd                      0x0800963d   Thumb Code    24  stm32f10x_usart.o(.text)
    USART_OverSampling8Cmd                   0x08009655   Thumb Code    22  stm32f10x_usart.o(.text)
    USART_OneBitMethodCmd                    0x0800966b   Thumb Code    24  stm32f10x_usart.o(.text)
    USART_IrDAConfig                         0x08009683   Thumb Code    18  stm32f10x_usart.o(.text)
    USART_IrDACmd                            0x08009695   Thumb Code    24  stm32f10x_usart.o(.text)
    USART_GetFlagStatus                      0x080096ad   Thumb Code    26  stm32f10x_usart.o(.text)
    USART_ClearFlag                          0x080096c7   Thumb Code    18  stm32f10x_usart.o(.text)
    USART_GetITStatus                        0x080096d9   Thumb Code    84  stm32f10x_usart.o(.text)
    USART_ClearITPendingBit                  0x0800972d   Thumb Code    52  stm32f10x_usart.o(.text)
    IWDG_WriteAccessCmd                      0x08009761   Thumb Code     6  stm32f10x_iwdg.o(.text)
    IWDG_SetPrescaler                        0x08009767   Thumb Code     6  stm32f10x_iwdg.o(.text)
    IWDG_SetReload                           0x0800976d   Thumb Code     6  stm32f10x_iwdg.o(.text)
    IWDG_ReloadCounter                       0x08009773   Thumb Code    10  stm32f10x_iwdg.o(.text)
    IWDG_Enable                              0x0800977d   Thumb Code    10  stm32f10x_iwdg.o(.text)
    IWDG_GetFlagStatus                       0x08009787   Thumb Code    20  stm32f10x_iwdg.o(.text)
    DebugHeap                                0x080097a1   Thumb Code    46  os_wrap.o(.text)
    QS_HeapInit                              0x080097cf   Thumb Code   146  os_wrap.o(.text)
    OS_WrapInit                              0x08009861   Thumb Code    62  os_wrap.o(.text)
    OS_StartRun                              0x0800989f   Thumb Code    14  os_wrap.o(.text)
    OS_MemSet                                0x080098ad   Thumb Code    26  os_wrap.o(.text)
    QS_Mallco                                0x0800999d   Thumb Code   222  os_wrap.o(.text)
    OS_TaskCreate                            0x08009a7b   Thumb Code   168  os_wrap.o(.text)
    OS_TaskStkCheck                          0x08009b23   Thumb Code    92  os_wrap.o(.text)
    OS_TaskDelete                            0x08009b7f   Thumb Code    38  os_wrap.o(.text)
    OS_TaskDelay                             0x08009ba5   Thumb Code    12  os_wrap.o(.text)
    OS_TaskDelayMs                           0x08009bb1   Thumb Code    20  os_wrap.o(.text)
    OS_TaskSuspend                           0x08009bc5   Thumb Code    12  os_wrap.o(.text)
    OS_TaskResume                            0x08009bd1   Thumb Code    12  os_wrap.o(.text)
    QS_Free                                  0x08009ce3   Thumb Code   104  os_wrap.o(.text)
    QMBMemCreat                              0x08009d4b   Thumb Code   128  os_wrap.o(.text)
    QMBMemGet                                0x08009dcb   Thumb Code    56  os_wrap.o(.text)
    QMBMemPut                                0x08009e03   Thumb Code    62  os_wrap.o(.text)
    OS_MsgBoxCreate                          0x08009e41   Thumb Code   138  os_wrap.o(.text)
    OS_MemCpy                                0x08009ecb   Thumb Code    30  os_wrap.o(.text)
    OS_MsgBoxSend                            0x08009ee9   Thumb Code   174  os_wrap.o(.text)
    OS_MsgBoxSend_Ex                         0x08009f97   Thumb Code   228  os_wrap.o(.text)
    OS_MsgBoxReceive                         0x0800a07b   Thumb Code   110  os_wrap.o(.text)
    OS_MsgBoxReceive_Ex                      0x0800a0e9   Thumb Code   146  os_wrap.o(.text)
    OS_SemaphoreCreate                       0x0800a17b   Thumb Code    22  os_wrap.o(.text)
    OS_SemaphoreTake                         0x0800a191   Thumb Code    72  os_wrap.o(.text)
    OS_SemaphoreGive                         0x0800a1d9   Thumb Code    14  os_wrap.o(.text)
    OS_MutexCreate                           0x0800a1e7   Thumb Code    26  os_wrap.o(.text)
    OS_MutexTake                             0x0800a201   Thumb Code    22  os_wrap.o(.text)
    OS_MutexGive                             0x0800a217   Thumb Code    12  os_wrap.o(.text)
    OS_GetCurrentTick                        0x0800a223   Thumb Code     8  os_wrap.o(.text)
    OS_GetCurrentSysMs                       0x0800a22b   Thumb Code    12  os_wrap.o(.text)
    QS_MonitorFragment                       0x0800a237   Thumb Code    94  os_wrap.o(.text)
    QS_HeapArrange                           0x0800a295   Thumb Code     4  os_wrap.o(.text)
    IntToStr                                 0x0800a299   Thumb Code    88  os_wrap.o(.text)
    IpToStr                                  0x0800a2f1   Thumb Code    64  os_wrap.o(.text)
    StrToInt                                 0x0800a331   Thumb Code    32  os_wrap.o(.text)
    FloatToInt                               0x0800a351   Thumb Code   104  os_wrap.o(.text)
    OS_MemCpy2                               0x0800a3b9   Thumb Code    30  os_wrap.o(.text)
    CompareBuf                               0x0800a3d7   Thumb Code    54  os_wrap.o(.text)
    DisplayBuf                               0x0800a40d   Thumb Code     2  os_wrap.o(.text)
    Rev16                                    0x0800a42b   Thumb Code    14  os_wrap.o(.text)
    Rev32                                    0x0800a439   Thumb Code     6  os_wrap.o(.text)
    GetHwID                                  0x0800a43f   Thumb Code    32  os_wrap.o(.text)
    docrc8                                   0x0800a45f   Thumb Code    24  os_wrap.o(.text)
    DisplayParaInit                          0x0800a485   Thumb Code    10  displaypara.o(.text)
    DisplayPageJump                          0x0800a48f   Thumb Code   156  displaypara.o(.text)
    DisplayPageDealProcess                   0x0800a52b   Thumb Code   322  displaypara.o(.text)
    DisplayLastPageJumpAfterDeal             0x0800a66d   Thumb Code    22  displaypara.o(.text)
    DisplayCurrentPageJumpBeforeDeal         0x0800a683   Thumb Code    22  displaypara.o(.text)
    DisplayParaDealProcess                   0x0800a699   Thumb Code   210  displaypara.o(.text)
    S1S2ParaInit                             0x0800a775   Thumb Code     2  parasettinglib.o(.text)
    ParaDelayParaRead                        0x0800a777   Thumb Code    16  parasettinglib.o(.text)
    ParaLinkParaRead                         0x0800a787   Thumb Code    18  parasettinglib.o(.text)
    ParaPathParaRead                         0x0800a799   Thumb Code    18  parasettinglib.o(.text)
    ParaDelayParaSave                        0x0800a7ab   Thumb Code    16  parasettinglib.o(.text)
    ParaLinkParaSave                         0x0800a7bb   Thumb Code    18  parasettinglib.o(.text)
    ParaPathParaSave                         0x0800a7cd   Thumb Code    18  parasettinglib.o(.text)
    ParaMassStorageInit                      0x0800a7fb   Thumb Code   244  parasettinglib.o(.text)
    ParaSettingLibInit                       0x0800a8ef   Thumb Code    30  parasettinglib.o(.text)
    ScrInfGet                                0x0800a90d   Thumb Code     4  parasettinglib.o(.text)
    ParaSettingSendData                      0x0800a911   Thumb Code    58  parasettinglib.o(.text)
    WirlessParaGet                           0x0800a94b   Thumb Code     4  parasettinglib.o(.text)
    AllTheControlParaGet                     0x0800a94f   Thumb Code    26  parasettinglib.o(.text)
    ControlPareState                         0x0800a969   Thumb Code  1408  parasettinglib.o(.text)
    FoodLineTimeGet                          0x0800aee9   Thumb Code    10  parasettinglib.o(.text)
    PathTrav                                 0x0800aef3   Thumb Code    74  parasettinglib.o(.text)
    IndexTrav                                0x0800af3d   Thumb Code    74  parasettinglib.o(.text)
    PathParameterGet                         0x0800af87   Thumb Code     4  parasettinglib.o(.text)
    LinkParameterGet                         0x0800af8b   Thumb Code     4  parasettinglib.o(.text)
    RcDeviceParaGet                          0x0800af8f   Thumb Code     4  parasettinglib.o(.text)
    ReadPathGet                              0x0800af93   Thumb Code     4  parasettinglib.o(.text)
    FoodlineDeviceParaGet                    0x0800af97   Thumb Code     4  parasettinglib.o(.text)
    FoodlineControlGet                       0x0800af9b   Thumb Code     4  parasettinglib.o(.text)
    SwitchValveControlGet                    0x0800af9f   Thumb Code     4  parasettinglib.o(.text)
    SwitchValveParaGet                       0x0800afa3   Thumb Code     4  parasettinglib.o(.text)
    TowersOutControlGet                      0x0800afa7   Thumb Code     4  parasettinglib.o(.text)
    TowersOutDeviceParaGet                   0x0800afab   Thumb Code     4  parasettinglib.o(.text)
    PageXIdSet                               0x0800afaf   Thumb Code    10  parasettinglib.o(.text)
    PageXIdGet                               0x0800afb9   Thumb Code     4  parasettinglib.o(.text)
    ParaRefreshGet                           0x0800afbd   Thumb Code     4  parasettinglib.o(.text)
    ParaAnswer                               0x0800afc1   Thumb Code    50  parasettinglib.o(.text)
    SeqMapInit                               0x0800b029   Thumb Code    30  foodlinecontrol.o(.text)
    PutSeqInMap                              0x0800b047   Thumb Code    30  foodlinecontrol.o(.text)
    IsSeqInMap                               0x0800b065   Thumb Code    30  foodlinecontrol.o(.text)
    DeviceControlParaGet                     0x0800b083   Thumb Code     4  foodlinecontrol.o(.text)
    ControlMsgBoxInit                        0x0800b087   Thumb Code    84  foodlinecontrol.o(.text)
    StateMachine_Task                        0x0800b0db   Thumb Code    12  foodlinecontrol.o(.text)
    SendTypeInquire                          0x0800b4b3   Thumb Code    18  foodlinecontrol.o(.text)
    SingleDeviceStop                         0x0800b4c5   Thumb Code    26  foodlinecontrol.o(.text)
    DeviceStopStateInquire                   0x0800b4df   Thumb Code   244  foodlinecontrol.o(.text)
    SingleDeviceControl                      0x0800b5d3   Thumb Code    40  foodlinecontrol.o(.text)
    DeviceControlStateInquire                0x0800b5fb   Thumb Code   676  foodlinecontrol.o(.text)
    DeviceControlAndInquire                  0x0800baf1   Thumb Code   452  foodlinecontrol.o(.text)
    DeviceStopAndInquire                     0x0800bcf3   Thumb Code   574  foodlinecontrol.o(.text)
    DeviceShutdown                           0x0800bf31   Thumb Code   258  foodlinecontrol.o(.text)
    StateMachineInit                         0x0800c69f   Thumb Code    26  statemachine.o(.text)
    StateMachineProcess                      0x0800c6b9   Thumb Code    26  statemachine.o(.text)
    Page2PathConfigTurn                      0x0800c715   Thumb Code    96  page2pathconfig.o(.text)
    Page2PathConfigInit                      0x0800c775   Thumb Code    54  page2pathconfig.o(.text)
    Page2PathSendPath                        0x0800c7ab   Thumb Code   414  page2pathconfig.o(.text)
    Page2PathSavePath                        0x0800c949   Thumb Code   304  page2pathconfig.o(.text)
    Page2PathConfigInsert                    0x0800ca79   Thumb Code   104  page2pathconfig.o(.text)
    Page2PathConfigDelete                    0x0800cae1   Thumb Code   120  page2pathconfig.o(.text)
    Page2PathConfigRefresh                   0x0800cb59   Thumb Code   378  page2pathconfig.o(.text)
    Page2PathConfigProcess                   0x0800ccd3   Thumb Code   548  page2pathconfig.o(.text)
    Page1Convert                             0x0800cf09   Thumb Code    38  page1flinepathconfig.o(.text)
    Page1FlinePathConfigInit                 0x0800cf2f   Thumb Code     2  page1flinepathconfig.o(.text)
    Page1FlineSendPath                       0x0800cf31   Thumb Code   162  page1flinepathconfig.o(.text)
    Page1FlinePathConfigProcess              0x0800cfd3   Thumb Code   166  page1flinepathconfig.o(.text)
    Page1FlinePathConfigRefresh              0x0800d079   Thumb Code   150  page1flinepathconfig.o(.text)
    Page3FoodlineDeviceInquiry               0x0800d125   Thumb Code   210  page3flinedevice.o(.text)
    Page3FoodlineDeviceSend                  0x0800d1f7   Thumb Code   476  page3flinedevice.o(.text)
    Page3FlineDeviceRefresh                  0x0800d3d3   Thumb Code   388  page3flinedevice.o(.text)
    Page3FlineDeviceInit                     0x0800d557   Thumb Code    44  page3flinedevice.o(.text)
    Page3FlineDeviceProcess                  0x0800d583   Thumb Code   708  page3flinedevice.o(.text)
    Page5ReviseSend                          0x0800d859   Thumb Code   110  page5revise.o(.text)
    Page5ReviseInit                          0x0800d8c7   Thumb Code    50  page5revise.o(.text)
    Page5ReviseProcess                       0x0800d8f9   Thumb Code   328  page5revise.o(.text)
    Page5ReviseRefresh                       0x0800da41   Thumb Code   330  page5revise.o(.text)
    Page6PathConfigTurn                      0x0800dba1   Thumb Code    96  page6readpathconfig.o(.text)
    Page6PathConfigInit                      0x0800dc01   Thumb Code    72  page6readpathconfig.o(.text)
    Page6PathSendPath                        0x0800dc49   Thumb Code   232  page6readpathconfig.o(.text)
    Page6PathConfigProcess                   0x0800dd31   Thumb Code   316  page6readpathconfig.o(.text)
    Page6PathConfigRefresh                   0x0800de6d   Thumb Code   368  page6readpathconfig.o(.text)
    Page7ControlFlineInit                    0x0800dfdd   Thumb Code    46  page7controlfline.o(.text)
    Page7ControlSend                         0x0800e00b   Thumb Code   292  page7controlfline.o(.text)
    Page7ControlAsk                          0x0800e12f   Thumb Code   210  page7controlfline.o(.text)
    Page7ControlFlineProcess                 0x0800e201   Thumb Code   206  page7controlfline.o(.text)
    Page7ControlFlineRefresh                 0x0800e2cf   Thumb Code   442  page7controlfline.o(.text)
    Page8SwitchValveInit                     0x0800e48d   Thumb Code    46  page8switchvalve.o(.text)
    Page8ControlSend                         0x0800e4bb   Thumb Code   230  page8switchvalve.o(.text)
    Page8ControlAsk                          0x0800e5a1   Thumb Code   210  page8switchvalve.o(.text)
    Page8SwitchValveProcess                  0x0800e673   Thumb Code   178  page8switchvalve.o(.text)
    Page8SwitchValveRefresh                  0x0800e725   Thumb Code   292  page8switchvalve.o(.text)
    Page9SwitchValveConfigInquiry            0x0800e85d   Thumb Code   210  page9switchvalveconfig.o(.text)
    Page9SwitchValveConfigSend               0x0800e92f   Thumb Code   292  page9switchvalveconfig.o(.text)
    Page9SwitchValveConfigRefresh            0x0800ea53   Thumb Code   178  page9switchvalveconfig.o(.text)
    Page9SwitchValveConfigInit               0x0800eb05   Thumb Code    44  page9switchvalveconfig.o(.text)
    Page9SwitchValveConfigProcess            0x0800eb31   Thumb Code   320  page9switchvalveconfig.o(.text)
    Page10TowersOutInit                      0x0800ec71   Thumb Code    46  page10towersout.o(.text)
    Page10ControlSend                        0x0800ec9f   Thumb Code   272  page10towersout.o(.text)
    Page10ControlAsk                         0x0800edaf   Thumb Code   210  page10towersout.o(.text)
    Page10TowersOutProcess                   0x0800ee81   Thumb Code   192  page10towersout.o(.text)
    Page10TowersOutRefresh                   0x0800ef41   Thumb Code   362  page10towersout.o(.text)
    Page11TowersOutConfigInquiry             0x0800f0b1   Thumb Code   210  page11towersoutconfig.o(.text)
    Page11TowersOutConfigSend                0x0800f183   Thumb Code   476  page11towersoutconfig.o(.text)
    Page11TowersOutConfigRefresh             0x0800f35f   Thumb Code   378  page11towersoutconfig.o(.text)
    Page11TowersOutConfigInit                0x0800f4d9   Thumb Code    44  page11towersoutconfig.o(.text)
    Page11TowersOutConfigProcess             0x0800f505   Thumb Code   618  page11towersoutconfig.o(.text)
    Page12S1S2ControlRefresh                 0x0800f779   Thumb Code  1358  page12s1s2control.o(.text)
    Page12S1S2ControlInit                    0x0800fcc7   Thumb Code     8  page12s1s2control.o(.text)
    Page12S1S2ControlProcess                 0x0800fccf   Thumb Code   426  page12s1s2control.o(.text)
    Page13LinkConfigTurn                     0x0800fe79   Thumb Code    96  page13linkconfig .o(.text)
    Page13LinkConfigInit                     0x0800fed9   Thumb Code    54  page13linkconfig .o(.text)
    Page13LinkConfigInsert                   0x0800ff0f   Thumb Code   224  page13linkconfig .o(.text)
    Page13LinkConfigDelete                   0x0800ffef   Thumb Code   234  page13linkconfig .o(.text)
    Page13LinkConfigRefresh                  0x080100d9   Thumb Code   654  page13linkconfig .o(.text)
    Page13LinkConfigProcess                  0x08010367   Thumb Code   956  page13linkconfig .o(.text)
    Page14W1ControlRefresh                   0x08010731   Thumb Code   274  page14w1control.o(.text)
    Page14W1ControlInit                      0x08010843   Thumb Code     8  page14w1control.o(.text)
    Page14W1ControlProcess                   0x0801084b   Thumb Code   380  page14w1control.o(.text)
    Page15W2ControlRefresh                   0x080109cd   Thumb Code  1428  page15w2control.o(.text)
    Page15W2ControlInit                      0x08010f61   Thumb Code     8  page15w2control.o(.text)
    Page15W2ControlProcess                   0x08010f69   Thumb Code   378  page15w2control.o(.text)
    Page16E1E2ControlRefresh                 0x080110e9   Thumb Code   184  page16e1e2control.o(.text)
    Page16E1E2ControlInit                    0x080111a1   Thumb Code     8  page16e1e2control.o(.text)
    Page16E1E2ControlProcess                 0x080111a9   Thumb Code   394  page16e1e2control.o(.text)
    Page17C1ControlRefresh                   0x08011335   Thumb Code  1834  page17c1control.o(.text)
    Page17C1ControlInit                      0x08011a5f   Thumb Code     8  page17c1control.o(.text)
    Page17C1ControlProcess                   0x08011a67   Thumb Code   398  page17c1control.o(.text)
    Page18C2ControlRefresh                   0x08011bf9   Thumb Code  1504  page18c2control.o(.text)
    Page18C2ControlInit                      0x080121d9   Thumb Code     8  page18c2control.o(.text)
    Page18C2ControlProcess                   0x080121e1   Thumb Code   354  page18c2control.o(.text)
    Page19N1ControlRefresh                   0x08012349   Thumb Code   208  page19n1control.o(.text)
    Page19N1ControlInit                      0x08012419   Thumb Code     8  page19n1control.o(.text)
    Page19N1ControlProcess                   0x08012421   Thumb Code   368  page19n1control.o(.text)
    Page20N2ControlRefresh                   0x08012595   Thumb Code   220  page20n2control.o(.text)
    Page20N2ControlInit                      0x08012671   Thumb Code     8  page20n2control.o(.text)
    Page20N2ControlProcess                   0x08012679   Thumb Code   378  page20n2control.o(.text)
    WirelessComm_Init                        0x080127f9   Thumb Code   148  wirelesscomm.o(.text)
    SendConfigPara                           0x0801288d   Thumb Code   228  wirelesscomm.o(.text)
    ReceiveWirelessMsg                       0x08012971   Thumb Code   424  wirelesscomm.o(.text)
    SendCommPacket                           0x08012b19   Thumb Code   280  wirelesscomm.o(.text)
    SendCommAck                              0x08012c31   Thumb Code    58  wirelesscomm.o(.text)
    AnalyseCommPacket                        0x08012c6b   Thumb Code   338  wirelesscomm.o(.text)
    WirelessCommRecv_Task                    0x08012dbd   Thumb Code   226  wirelesscomm.o(.text)
    WirelessCommSend_Task                    0x08012e9f   Thumb Code   154  wirelesscomm.o(.text)
    WirelessComm_SendData                    0x08012f39   Thumb Code   228  wirelesscomm.o(.text)
    WirelessCommRetrans_Task                 0x0801301d   Thumb Code   936  wirelesscomm.o(.text)
    WirelessApp_SendData                     0x080133c5   Thumb Code   640  wirelesscomm.o(.text)
    WirelessIntService                       0x08013645   Thumb Code   292  wirelesscomm.o(.text)
    CreateWrelessTask                        0x08013769   Thumb Code    82  wirelesscomm.o(.text)
    Wlan4GComm_Init                          0x0801380d   Thumb Code    94  wlan4gcomm.o(.text)
    Wlan4G_SetServer                         0x0801386b   Thumb Code    42  wlan4gcomm.o(.text)
    Wlan4G_Send                              0x08013895   Thumb Code    64  wlan4gcomm.o(.text)
    ConnectServer                            0x080138d5   Thumb Code   174  wlan4gcomm.o(.text)
    Wlan4GLink_Task                          0x08013983   Thumb Code  1296  wlan4gcomm.o(.text)
    CheckPktType                             0x08013e93   Thumb Code   340  wlan4gcomm.o(.text)
    Wlan4G_Transfer                          0x08013fe7   Thumb Code    84  wlan4gcomm.o(.text)
    Wlan4G_RevTransfer                       0x0801403b   Thumb Code   306  wlan4gcomm.o(.text)
    Wlan4G_AnalyseData                       0x0801416d   Thumb Code   150  wlan4gcomm.o(.text)
    Wlan4G_AnalyseFrame                      0x08014203   Thumb Code   124  wlan4gcomm.o(.text)
    Wlan4G_AnalysePkt                        0x0801427f   Thumb Code   148  wlan4gcomm.o(.text)
    Wlan4GPkt_Task                           0x08014313   Thumb Code  1052  wlan4gcomm.o(.text)
    Wlan4G_SendData                          0x0801472f   Thumb Code   350  wlan4gcomm.o(.text)
    Wlan4GSend_Task                          0x0801488d   Thumb Code   452  wlan4gcomm.o(.text)
    Send4GMessage                            0x08014a51   Thumb Code   112  wlan4gcomm.o(.text)
    Wlan4GIntService                         0x08014ac1   Thumb Code   228  wlan4gcomm.o(.text)
    CreateW4GTask                            0x08014ba5   Thumb Code    80  wlan4gcomm.o(.text)
    EraseIapInfodata                         0x08014c31   Thumb Code    16  airiap.o(.text)
    WriteIapInfo                             0x08014c41   Thumb Code   108  airiap.o(.text)
    ReadIapInfo                              0x08014cad   Thumb Code    82  airiap.o(.text)
    WriteIapdata                             0x08014cff   Thumb Code    52  airiap.o(.text)
    ReadIapdata                              0x08014d33   Thumb Code    22  airiap.o(.text)
    WriteLocalConfig                         0x08014d49   Thumb Code   100  airiap.o(.text)
    ReadLocalConfig                          0x08014dad   Thumb Code    82  airiap.o(.text)
    AskVersion                               0x08014dff   Thumb Code   200  airiap.o(.text)
    RcvVersion                               0x08014ec7   Thumb Code   146  airiap.o(.text)
    AskVerData                               0x08014f59   Thumb Code   266  airiap.o(.text)
    RcvVerData                               0x08015063   Thumb Code   104  airiap.o(.text)
    RcvAskIapInfo                            0x080150cb   Thumb Code   212  airiap.o(.text)
    RcvAskGuid                               0x0801519f   Thumb Code   300  airiap.o(.text)
    RespondConfigPara                        0x080152cb   Thumb Code   216  airiap.o(.text)
    Sys_Soft_Reset                           0x080153a3   Thumb Code     8  airiap.o(.text)
    RcvConfigPara                            0x080153ab   Thumb Code    96  airiap.o(.text)
    RespConfigPara                           0x0801540b   Thumb Code   298  airiap.o(.text)
    RcvConfigID                              0x08015535   Thumb Code    78  airiap.o(.text)
    ResetDevice                              0x08015583   Thumb Code    32  airiap.o(.text)
    RcvAdjustTime                            0x080155a3   Thumb Code   386  airiap.o(.text)
    RcvIapData                               0x08015725   Thumb Code   210  airiap.o(.text)
    AirIapReq_Task                           0x080157f7   Thumb Code   148  airiap.o(.text)
    AirIapDat_Task                           0x0801588b   Thumb Code   760  airiap.o(.text)
    CreateIapTask                            0x08015b83   Thumb Code    56  airiap.o(.text)
    ParaFlash_Init                           0x08015bbb   Thumb Code    38  airiap.o(.text)
    AirIap_Init                              0x08015be1   Thumb Code   300  airiap.o(.text)
    __2sprintf                               0x08015d0d   Thumb Code    34  noretval__2sprintf.o(.text)
    _printf_pre_padding                      0x08015d35   Thumb Code    44  _printf_pad.o(.text)
    _printf_post_padding                     0x08015d61   Thumb Code    34  _printf_pad.o(.text)
    _printf_int_dec                          0x08015d85   Thumb Code   104  _printf_dec.o(.text)
    _printf_int_hex                          0x08015dfd   Thumb Code    84  _printf_hex_int.o(.text)
    _printf_longlong_hex                     0x08015dfd   Thumb Code     0  _printf_hex_int.o(.text)
    __printf                                 0x08015e55   Thumb Code   308  __printf_flags_wp.o(.text)
    __aeabi_memcpy4                          0x08015f8d   Thumb Code     0  rt_memcpy_w.o(.text)
    __aeabi_memcpy8                          0x08015f8d   Thumb Code     0  rt_memcpy_w.o(.text)
    __rt_memcpy_w                            0x08015f8d   Thumb Code   100  rt_memcpy_w.o(.text)
    _memcpy_lastbytes_aligned                0x08015fd5   Thumb Code     0  rt_memcpy_w.o(.text)
    __aeabi_memclr                           0x08015ff1   Thumb Code     0  rt_memclr.o(.text)
    __rt_memclr                              0x08015ff1   Thumb Code    68  rt_memclr.o(.text)
    _memset                                  0x08015ff5   Thumb Code     0  rt_memclr.o(.text)
    __aeabi_memclr4                          0x08016035   Thumb Code     0  rt_memclr_w.o(.text)
    __aeabi_memclr8                          0x08016035   Thumb Code     0  rt_memclr_w.o(.text)
    __rt_memclr_w                            0x08016035   Thumb Code    78  rt_memclr_w.o(.text)
    _memset_w                                0x08016039   Thumb Code     0  rt_memclr_w.o(.text)
    __use_two_region_memory                  0x08016083   Thumb Code     2  heapauxi.o(.text)
    __rt_heap_escrow$2region                 0x08016085   Thumb Code     2  heapauxi.o(.text)
    __rt_heap_expand$2region                 0x08016087   Thumb Code     2  heapauxi.o(.text)
    _printf_int_common                       0x08016089   Thumb Code   178  _printf_intcommon.o(.text)
    _printf_char_common                      0x08016147   Thumb Code    32  _printf_char_common.o(.text)
    _sputc                                   0x0801616d   Thumb Code    10  _sputc.o(.text)
    __user_setup_stackheap                   0x08016177   Thumb Code    74  sys_stackheap_outer.o(.text)
    exit                                     0x080161c1   Thumb Code    12  exit.o(.text)
    __user_libspace                          0x080161cd   Thumb Code     8  libspace.o(.text)
    __user_perproc_libspace                  0x080161cd   Thumb Code     0  libspace.o(.text)
    __user_perthread_libspace                0x080161cd   Thumb Code     0  libspace.o(.text)
    _sys_exit                                0x080161d5   Thumb Code     8  sys_exit.o(.text)
    __I$use$semihosting                      0x080161e1   Thumb Code     0  use_no_semi.o(.text)
    __use_no_semihosting_swi                 0x080161e1   Thumb Code     2  use_no_semi.o(.text)
    __semihosting_library_function           0x080161e3   Thumb Code     0  indicate_semi.o(.text)
    _is_digit                                0x080161e3   Thumb Code    14  __printf_wp.o(i._is_digit)
    __fpl_dcmp_Inf                           0x080161f1   Thumb Code    24  dcmpi.o(x$fpl$dcmpinf)
    __aeabi_cdcmple                          0x08016209   Thumb Code     0  dleqf.o(x$fpl$dleqf)
    _dcmple                                  0x08016209   Thumb Code   120  dleqf.o(x$fpl$dleqf)
    __fpl_dcmple_InfNaN                      0x0801626b   Thumb Code     0  dleqf.o(x$fpl$dleqf)
    __fpl_dnaninf                            0x08016281   Thumb Code   156  dnaninf.o(x$fpl$dnaninf)
    __fpl_dretinf                            0x0801631d   Thumb Code    12  dretinf.o(x$fpl$dretinf)
    __aeabi_cdrcmple                         0x08016329   Thumb Code     0  drleqf.o(x$fpl$drleqf)
    _drcmple                                 0x08016329   Thumb Code   108  drleqf.o(x$fpl$drleqf)
    __aeabi_f2d                              0x08016395   Thumb Code     0  f2d.o(x$fpl$f2d)
    _f2d                                     0x08016395   Thumb Code    86  f2d.o(x$fpl$f2d)
    __aeabi_fadd                             0x080163ed   Thumb Code     0  faddsub_clz.o(x$fpl$fadd)
    _fadd                                    0x080163ed   Thumb Code   196  faddsub_clz.o(x$fpl$fadd)
    __aeabi_f2iz                             0x080164b1   Thumb Code     0  ffix.o(x$fpl$ffix)
    _ffix                                    0x080164b1   Thumb Code    54  ffix.o(x$fpl$ffix)
    __aeabi_i2f                              0x080164e9   Thumb Code     0  fflt_clz.o(x$fpl$fflt)
    _fflt                                    0x080164e9   Thumb Code    48  fflt_clz.o(x$fpl$fflt)
    __aeabi_fmul                             0x08016519   Thumb Code     0  fmul.o(x$fpl$fmul)
    _fmul                                    0x08016519   Thumb Code   258  fmul.o(x$fpl$fmul)
    __fpl_fnaninf                            0x0801661b   Thumb Code   140  fnaninf.o(x$fpl$fnaninf)
    __fpl_fretinf                            0x080166a7   Thumb Code    10  fretinf.o(x$fpl$fretinf)
    __aeabi_frsub                            0x080166b1   Thumb Code     0  faddsub_clz.o(x$fpl$frsb)
    _frsb                                    0x080166b1   Thumb Code    20  faddsub_clz.o(x$fpl$frsb)
    __aeabi_fsub                             0x080166c5   Thumb Code     0  faddsub_clz.o(x$fpl$fsub)
    _fsub                                    0x080166c5   Thumb Code   234  faddsub_clz.o(x$fpl$fsub)
    __I$use$fp                               0x080167ae   Number         0  usenofp.o(x$fpl$usenofp)
    Leap_Month_Seconds                       0x080167b0   Data          52  rtc.o(.constdata)
    Month_Seconds                            0x080167e4   Data          52  rtc.o(.constdata)
    OSUnMapTbl                               0x08016818   Data         256  os_core.o(.constdata)
    crc8table                                0x08016918   Data         256  os_wrap.o(.constdata)
    Region$$Table$$Base                      0x08016a98   Number         0  anon$$obj.o(Region$$Table)
    Region$$Table$$Limit                     0x08016ab8   Number         0  anon$$obj.o(Region$$Table)
    OSCtxSwCtr                               0x20001014   Data           4  os_core.o(.data)
    OSEventFreeList                          0x20001018   Data           4  os_core.o(.data)
    OSIntNesting                             0x2000101c   Data           1  os_core.o(.data)
    OSLockNesting                            0x2000101d   Data           1  os_core.o(.data)
    OSPrioCur                                0x2000101e   Data           1  os_core.o(.data)
    OSPrioHighRdy                            0x2000101f   Data           1  os_core.o(.data)
    OSRdyGrp                                 0x20001020   Data           1  os_core.o(.data)
    OSRdyTbl                                 0x20001021   Data           4  os_core.o(.data)
    OSRunning                                0x20001025   Data           1  os_core.o(.data)
    OSTaskCtr                                0x20001026   Data           1  os_core.o(.data)
    OSIdleCtr                                0x20001028   Data           4  os_core.o(.data)
    OSTCBCur                                 0x2000102c   Data           4  os_core.o(.data)
    OSTCBFreeList                            0x20001030   Data           4  os_core.o(.data)
    OSTCBHighRdy                             0x20001034   Data           4  os_core.o(.data)
    OSTCBList                                0x20001038   Data           4  os_core.o(.data)
    OSTickStepState                          0x2000103c   Data           1  os_core.o(.data)
    OSQFreeList                              0x20001040   Data           4  os_core.o(.data)
    OSTime                                   0x20001044   Data           4  os_core.o(.data)
    Dispatcher_Task_Handle                   0x20001048   Data           4  main.o(.data)
    DisplayCommRecv_Task_Handle              0x2000104c   Data           4  systeminit.o(.data)
    DisplayCommSend_Task_Handle              0x20001050   Data           4  systeminit.o(.data)
    ParaRefresh_Task_Handle                  0x20001054   Data           4  systeminit.o(.data)
    FoodlineControl_Task_Handle              0x20001058   Data           4  systeminit.o(.data)
    FoodlineStateMachine_Task_Handle         0x2000105c   Data           4  systeminit.o(.data)
    SysHMemLeftLen                           0x20001060   Data           2  systeminit.o(.data)
    MZOsTaskTotalNum                         0x20001062   Data           1  systeminit.o(.data)
    gNineSensorId                            0x20001064   Data           4  systeminit.o(.data)
    gUploadDeviceId                          0x20001068   Data           4  systeminit.o(.data)
    gAlarmCtrlId                             0x2000106c   Data           4  systeminit.o(.data)
    gOuterSensId                             0x20001070   Data           4  systeminit.o(.data)
    gSensorCo2Range                          0x20001074   Data           1  systeminit.o(.data)
    gLocalDeviceId                           0x20001078   Data           4  systeminit.o(.data)
    gCtrlPlatformId                          0x2000107c   Data           4  systeminit.o(.data)
    gCtrlServerIp                            0x20001080   Data           4  systeminit.o(.data)
    gCtrlServerPort                          0x20001084   Data           2  systeminit.o(.data)
    gLocalInfoFromRom                        0x20001086   Data           1  systeminit.o(.data)
    gDispatchHandler_Queue                   0x20001088   Data           4  dispatcher.o(.data)
    gDisplaySend_Queue                       0x20001094   Data           4  displayprotocol.o(.data)
    gDisplayMsg_Queue                        0x20001098   Data           4  displayprotocol.o(.data)
    gDisplayNotify_Queue                     0x2000109c   Data           4  displayprotocol.o(.data)
    gControlSend_Queue                       0x200010e8   Data           4  foodlinecontrol.o(.data)
    gControlStartRe_Queue                    0x200010ec   Data           4  foodlinecontrol.o(.data)
    gControlStopRe_Queue                     0x200010f0   Data           4  foodlinecontrol.o(.data)
    gControlSendSeq_Queue                    0x200010f4   Data           4  foodlinecontrol.o(.data)
    gControlSendNotify_Queue                 0x200010f8   Data           4  foodlinecontrol.o(.data)
    timerCommunication                       0x20001100   Data           4  foodlinecontrol.o(.data)
    NormalStopFlag                           0x20001114   Data           1  statemachine.o(.data)
    foodDownPlaceArrivalFlag                 0x20001115   Data           1  statemachine.o(.data)
    AreaW1Num                                0x20001174   Data           1  page14w1control.o(.data)
    AreaC1Num                                0x20001175   Data           1  page17c1control.o(.data)
    AreaN1Num                                0x20001176   Data           1  page19n1control.o(.data)
    WirelessForceRsts                        0x20001178   Data           1  wirelesscomm.o(.data)
    WirelessUartRsts                         0x20001179   Data           1  wirelesscomm.o(.data)
    gWirelessSend_Queue                      0x20001180   Data           4  wirelesscomm.o(.data)
    gWirelessMsg_Queue                       0x20001184   Data           4  wirelesscomm.o(.data)
    gWirelessNotify_Queue                    0x20001188   Data           4  wirelesscomm.o(.data)
    gWirelessRetrans_Queue                   0x2000118c   Data           4  wirelesscomm.o(.data)
    Wlan4GForceRsts                          0x200011c0   Data           1  wlan4gcomm.o(.data)
    Wlan4GUartRsts                           0x200011c1   Data           1  wlan4gcomm.o(.data)
    SPI_InitStructure                        0x20001218   Data          18  spi.o(.bss)
    OSEventTbl                               0x2000122c   Data         800  os_core.o(.bss)
    OSTaskIdleStk                            0x2000154c   Data         512  os_core.o(.bss)
    OSTCBPrioTbl                             0x2000174c   Data         128  os_core.o(.bss)
    OSTCBTbl                                 0x200017cc   Data        1624  os_core.o(.bss)
    OSQTbl                                   0x20001e24   Data         768  os_core.o(.bss)
    HMem                                     0x20002124   Data       24580  systeminit.o(.bss)
    MZQsTaskRecord                           0x20008128   Data         320  systeminit.o(.bss)
    Stm32DeviceID                            0x20008268   Data          12  systeminit.o(.bss)
    gDisplayMsgBody                          0x200082ac   Data        2048  displayprotocol.o(.bss)
    gDisplayMsgSend                          0x20008aac   Data        2048  displayprotocol.o(.bss)
    gDisplayMsgBodyLen                       0x200092ac   Data          16  displayprotocol.o(.bss)
    gDisplayMsgSendLen                       0x200092bc   Data          16  displayprotocol.o(.bss)
    gAllTheControlPara                       0x2000b7e8   Data        5600  parasettinglib.o(.bss)
    USimICCID                                0x2000cff0   Data          24  wlan4gcomm.o(.bss)
    __libspace_start                         0x2000d2b8   Data          96  libspace.o(.bss)
    __temporary_stack_top$libspace           0x2000d318   Data           0  libspace.o(.bss)



==============================================================================

Memory Map of the image

  Image Entry point : 0x08002931

  Load Region LR_IROM1 (Base: 0x08002800, Size: 0x000154e8, Max: 0x0003c000, ABSOLUTE, COMPRESSED[0x0001432c])

    Execution Region ER_IROM1 (Base: 0x08002800, Size: 0x000142d0, Max: 0x0003c000, ABSOLUTE)

    Base Addr    Size         Type   Attr      Idx    E Section Name        Object

    0x08002800   0x00000130   Data   RO            3    RESET               stm32f10x.o
    0x08002930   0x00000008   Code   RO         1709  * !!!main             c_w.l(__main.o)
    0x08002938   0x00000034   Code   RO         1911    !!!scatter          c_w.l(__scatter.o)
    0x0800296c   0x0000005a   Code   RO         1909    !!dczerorl2         c_w.l(__dczerorl2.o)
    0x080029c6   0x00000002   PAD
    0x080029c8   0x0000001c   Code   RO         1913    !!handler_zi        c_w.l(__scatter_zi.o)
    0x080029e4   0x00000000   Code   RO         1700    .ARM.Collect$$_printf_percent$$00000000  c_w.l(_printf_percent.o)
    0x080029e4   0x00000006   Code   RO         1699    .ARM.Collect$$_printf_percent$$00000009  c_w.l(_printf_d.o)
    0x080029ea   0x00000006   Code   RO         1698    .ARM.Collect$$_printf_percent$$0000000C  c_w.l(_printf_x.o)
    0x080029f0   0x00000004   Code   RO         1742    .ARM.Collect$$_printf_percent$$00000017  c_w.l(_printf_percent_end.o)
    0x080029f4   0x00000002   Code   RO         1780    .ARM.Collect$$libinit$$00000000  c_w.l(libinit.o)
    0x080029f6   0x00000000   Code   RO         1787    .ARM.Collect$$libinit$$00000002  c_w.l(libinit2.o)
    0x080029f6   0x00000000   Code   RO         1789    .ARM.Collect$$libinit$$00000004  c_w.l(libinit2.o)
    0x080029f6   0x00000000   Code   RO         1792    .ARM.Collect$$libinit$$0000000A  c_w.l(libinit2.o)
    0x080029f6   0x00000000   Code   RO         1794    .ARM.Collect$$libinit$$0000000C  c_w.l(libinit2.o)
    0x080029f6   0x00000000   Code   RO         1796    .ARM.Collect$$libinit$$0000000E  c_w.l(libinit2.o)
    0x080029f6   0x00000000   Code   RO         1799    .ARM.Collect$$libinit$$00000011  c_w.l(libinit2.o)
    0x080029f6   0x00000000   Code   RO         1801    .ARM.Collect$$libinit$$00000013  c_w.l(libinit2.o)
    0x080029f6   0x00000000   Code   RO         1803    .ARM.Collect$$libinit$$00000015  c_w.l(libinit2.o)
    0x080029f6   0x00000000   Code   RO         1805    .ARM.Collect$$libinit$$00000017  c_w.l(libinit2.o)
    0x080029f6   0x00000000   Code   RO         1807    .ARM.Collect$$libinit$$00000019  c_w.l(libinit2.o)
    0x080029f6   0x00000000   Code   RO         1809    .ARM.Collect$$libinit$$0000001B  c_w.l(libinit2.o)
    0x080029f6   0x00000000   Code   RO         1811    .ARM.Collect$$libinit$$0000001D  c_w.l(libinit2.o)
    0x080029f6   0x00000000   Code   RO         1813    .ARM.Collect$$libinit$$0000001F  c_w.l(libinit2.o)
    0x080029f6   0x00000000   Code   RO         1815    .ARM.Collect$$libinit$$00000021  c_w.l(libinit2.o)
    0x080029f6   0x00000000   Code   RO         1817    .ARM.Collect$$libinit$$00000023  c_w.l(libinit2.o)
    0x080029f6   0x00000000   Code   RO         1819    .ARM.Collect$$libinit$$00000025  c_w.l(libinit2.o)
    0x080029f6   0x00000000   Code   RO         1823    .ARM.Collect$$libinit$$0000002C  c_w.l(libinit2.o)
    0x080029f6   0x00000000   Code   RO         1825    .ARM.Collect$$libinit$$0000002E  c_w.l(libinit2.o)
    0x080029f6   0x00000000   Code   RO         1827    .ARM.Collect$$libinit$$00000030  c_w.l(libinit2.o)
    0x080029f6   0x00000000   Code   RO         1829    .ARM.Collect$$libinit$$00000032  c_w.l(libinit2.o)
    0x080029f6   0x00000002   Code   RO         1830    .ARM.Collect$$libinit$$00000033  c_w.l(libinit2.o)
    0x080029f8   0x00000002   Code   RO         1850    .ARM.Collect$$libshutdown$$00000000  c_w.l(libshutdown.o)
    0x080029fa   0x00000000   Code   RO         1864    .ARM.Collect$$libshutdown$$00000003  c_w.l(libshutdown2.o)
    0x080029fa   0x00000000   Code   RO         1867    .ARM.Collect$$libshutdown$$00000006  c_w.l(libshutdown2.o)
    0x080029fa   0x00000000   Code   RO         1870    .ARM.Collect$$libshutdown$$00000009  c_w.l(libshutdown2.o)
    0x080029fa   0x00000000   Code   RO         1872    .ARM.Collect$$libshutdown$$0000000B  c_w.l(libshutdown2.o)
    0x080029fa   0x00000000   Code   RO         1875    .ARM.Collect$$libshutdown$$0000000E  c_w.l(libshutdown2.o)
    0x080029fa   0x00000002   Code   RO         1876    .ARM.Collect$$libshutdown$$0000000F  c_w.l(libshutdown2.o)
    0x080029fc   0x00000000   Code   RO         1735    .ARM.Collect$$rtentry$$00000000  c_w.l(__rtentry.o)
    0x080029fc   0x00000000   Code   RO         1755    .ARM.Collect$$rtentry$$00000002  c_w.l(__rtentry2.o)
    0x080029fc   0x00000006   Code   RO         1767    .ARM.Collect$$rtentry$$00000004  c_w.l(__rtentry4.o)
    0x08002a02   0x00000000   Code   RO         1757    .ARM.Collect$$rtentry$$00000009  c_w.l(__rtentry2.o)
    0x08002a02   0x00000004   Code   RO         1758    .ARM.Collect$$rtentry$$0000000A  c_w.l(__rtentry2.o)
    0x08002a06   0x00000000   Code   RO         1760    .ARM.Collect$$rtentry$$0000000C  c_w.l(__rtentry2.o)
    0x08002a06   0x00000008   Code   RO         1761    .ARM.Collect$$rtentry$$0000000D  c_w.l(__rtentry2.o)
    0x08002a0e   0x00000002   Code   RO         1784    .ARM.Collect$$rtexit$$00000000  c_w.l(rtexit.o)
    0x08002a10   0x00000000   Code   RO         1832    .ARM.Collect$$rtexit$$00000002  c_w.l(rtexit2.o)
    0x08002a10   0x00000004   Code   RO         1833    .ARM.Collect$$rtexit$$00000003  c_w.l(rtexit2.o)
    0x08002a14   0x00000006   Code   RO         1834    .ARM.Collect$$rtexit$$00000004  c_w.l(rtexit2.o)
    0x08002a1a   0x00000002   PAD
    0x08002a1c   0x00000020   Code   RO          826    .emb_text           core_cm3.o
    0x08002a3c   0x000000a4   Code   RO            5    .text               stm32f10x.o
    0x08002ae0   0x00000858   Code   RO           11    .text               rtc.o
    0x08003338   0x00000344   Code   RO          162    .text               uart.o
    0x0800367c   0x0000019e   Code   RO          177    .text               flash.o
    0x0800381a   0x00000050   Code   RO          198    .text               delay.o
    0x0800386a   0x0000002c   Code   RO          216    .text               wdg.o
    0x08003896   0x00000002   PAD
    0x08003898   0x000000e0   Code   RO          249    .text               spi.o
    0x08003978   0x000002a0   Code   RO          397    .text               spiflash.o
    0x08003c18   0x00000640   Code   RO          415    .text               os_core.o
    0x08004258   0x000005c0   Code   RO          438    .text               os_mutex.o
    0x08004818   0x00000394   Code   RO          454    .text               os_sem.o
    0x08004bac   0x000005a8   Code   RO          466    .text               os_task.o
    0x08005154   0x000001ac   Code   RO          478    .text               os_time.o
    0x08005300   0x00000538   Code   RO          490    .text               cpu_c.o
    0x08005838   0x0000002a   Code   RO          511    .text               cpu_a.o
    0x08005862   0x00000002   PAD
    0x08005864   0x00000098   Code   RO          514    .text               os_cpu_a.o
    0x080058fc   0x000000f4   Code   RO          517    .text               os_cpu_c.o
    0x080059f0   0x000003c8   Code   RO          554    .text               os_mbox.o
    0x08005db8   0x000005d0   Code   RO          572    .text               os_q.o
    0x08006388   0x000000c0   Code   RO          591    .text               main.o
    0x08006448   0x00000398   Code   RO          609    .text               systeminit.o
    0x080067e0   0x00000084   Code   RO          668    .text               dispatcher.o
    0x08006864   0x00000ab0   Code   RO          687    .text               wirelessapp.o
    0x08007314   0x000002a0   Code   RO          703    .text               wlan4gapp.o
    0x080075b4   0x0000078c   Code   RO          734    .text               displayprotocol.o
    0x08007d40   0x0000029c   Code   RO          810    .text               stm32f10x_it.o
    0x08007fdc   0x000000dc   Code   RO          836    .text               misc.o
    0x080080b8   0x000000c4   Code   RO          866    .text               stm32f10x_bkp.o
    0x0800817c   0x000005bc   Code   RO          908    .text               stm32f10x_flash.o
    0x08008738   0x0000035c   Code   RO          938    .text               stm32f10x_gpio.o
    0x08008a94   0x000000cc   Code   RO          953    .text               stm32f10x_pwr.o
    0x08008b60   0x000003a4   Code   RO          965    .text               stm32f10x_rcc.o
    0x08008f04   0x00000148   Code   RO          982    .text               stm32f10x_rtc.o
    0x0800904c   0x0000030c   Code   RO         1009    .text               stm32f10x_spi.o
    0x08009358   0x00000408   Code   RO         1039    .text               stm32f10x_usart.o
    0x08009760   0x00000040   Code   RO         1054    .text               stm32f10x_iwdg.o
    0x080097a0   0x00000ce4   Code   RO         1066    .text               os_wrap.o
    0x0800a484   0x000002f0   Code   RO         1084    .text               displaypara.o
    0x0800a774   0x000008b4   Code   RO         1103    .text               parasettinglib.o
    0x0800b028   0x0000100a   Code   RO         1122    .text               foodlinecontrol.o
    0x0800c032   0x00000002   PAD
    0x0800c034   0x000006e0   Code   RO         1145    .text               statemachine.o
    0x0800c714   0x000007f4   Code   RO         1162    .text               page2pathconfig.o
    0x0800cf08   0x0000021c   Code   RO         1179    .text               page1flinepathconfig.o
    0x0800d124   0x00000734   Code   RO         1197    .text               page3flinedevice.o
    0x0800d858   0x00000348   Code   RO         1214    .text               page5revise.o
    0x0800dba0   0x0000043c   Code   RO         1231    .text               page6readpathconfig.o
    0x0800dfdc   0x000004b0   Code   RO         1248    .text               page7controlfline.o
    0x0800e48c   0x000003d0   Code   RO         1265    .text               page8switchvalve.o
    0x0800e85c   0x00000414   Code   RO         1282    .text               page9switchvalveconfig.o
    0x0800ec70   0x00000440   Code   RO         1299    .text               page10towersout.o
    0x0800f0b0   0x000006c8   Code   RO         1316    .text               page11towersoutconfig.o
    0x0800f778   0x00000700   Code   RO         1333    .text               page12s1s2control.o
    0x0800fe78   0x000008b8   Code   RO         1349    .text               page13linkconfig .o
    0x08010730   0x0000029c   Code   RO         1367    .text               page14w1control.o
    0x080109cc   0x0000071c   Code   RO         1385    .text               page15w2control.o
    0x080110e8   0x0000024a   Code   RO         1401    .text               page16e1e2control.o
    0x08011332   0x00000002   PAD
    0x08011334   0x000008c4   Code   RO         1417    .text               page17c1control.o
    0x08011bf8   0x00000750   Code   RO         1435    .text               page18c2control.o
    0x08012348   0x0000024c   Code   RO         1451    .text               page19n1control.o
    0x08012594   0x00000264   Code   RO         1469    .text               page20n2control.o
    0x080127f8   0x00001014   Code   RO         1485    .text               MZWireless_131.lib(wirelesscomm.o)
    0x0801380c   0x00001424   Code   RO         1585    .text               MZWlan4G_131.lib(wlan4gcomm.o)
    0x08014c30   0x000010dc   Code   RO         1611    .text               MZAirIap_132_240K.lib(airiap.o)
    0x08015d0c   0x00000028   Code   RO         1649    .text               c_w.l(noretval__2sprintf.o)
    0x08015d34   0x0000004e   Code   RO         1653    .text               c_w.l(_printf_pad.o)
    0x08015d82   0x00000002   PAD
    0x08015d84   0x00000078   Code   RO         1655    .text               c_w.l(_printf_dec.o)
    0x08015dfc   0x00000058   Code   RO         1660    .text               c_w.l(_printf_hex_int.o)
    0x08015e54   0x00000138   Code   RO         1690    .text               c_w.l(__printf_flags_wp.o)
    0x08015f8c   0x00000064   Code   RO         1701    .text               c_w.l(rt_memcpy_w.o)
    0x08015ff0   0x00000044   Code   RO         1703    .text               c_w.l(rt_memclr.o)
    0x08016034   0x0000004e   Code   RO         1705    .text               c_w.l(rt_memclr_w.o)
    0x08016082   0x00000006   Code   RO         1707    .text               c_w.l(heapauxi.o)
    0x08016088   0x000000b2   Code   RO         1736    .text               c_w.l(_printf_intcommon.o)
    0x0801613a   0x00000002   PAD
    0x0801613c   0x00000030   Code   RO         1738    .text               c_w.l(_printf_char_common.o)
    0x0801616c   0x0000000a   Code   RO         1740    .text               c_w.l(_sputc.o)
    0x08016176   0x0000004a   Code   RO         1771    .text               c_w.l(sys_stackheap_outer.o)
    0x080161c0   0x0000000c   Code   RO         1773    .text               c_w.l(exit.o)
    0x080161cc   0x00000008   Code   RO         1781    .text               c_w.l(libspace.o)
    0x080161d4   0x0000000c   Code   RO         1842    .text               c_w.l(sys_exit.o)
    0x080161e0   0x00000002   Code   RO         1853    .text               c_w.l(use_no_semi.o)
    0x080161e2   0x00000000   Code   RO         1855    .text               c_w.l(indicate_semi.o)
    0x080161e2   0x0000000e   Code   RO         1688    i._is_digit         c_w.l(__printf_wp.o)
    0x080161f0   0x00000018   Code   RO         1743    x$fpl$dcmpinf       fz_ws.l(dcmpi.o)
    0x08016208   0x00000078   Code   RO         1711    x$fpl$dleqf         fz_ws.l(dleqf.o)
    0x08016280   0x0000009c   Code   RO         1745    x$fpl$dnaninf       fz_ws.l(dnaninf.o)
    0x0801631c   0x0000000c   Code   RO         1747    x$fpl$dretinf       fz_ws.l(dretinf.o)
    0x08016328   0x0000006c   Code   RO         1713    x$fpl$drleqf        fz_ws.l(drleqf.o)
    0x08016394   0x00000056   Code   RO         1715    x$fpl$f2d           fz_ws.l(f2d.o)
    0x080163ea   0x00000002   PAD
    0x080163ec   0x000000c4   Code   RO         1717    x$fpl$fadd          fz_ws.l(faddsub_clz.o)
    0x080164b0   0x00000036   Code   RO         1723    x$fpl$ffix          fz_ws.l(ffix.o)
    0x080164e6   0x00000002   PAD
    0x080164e8   0x00000030   Code   RO         1728    x$fpl$fflt          fz_ws.l(fflt_clz.o)
    0x08016518   0x00000102   Code   RO         1733    x$fpl$fmul          fz_ws.l(fmul.o)
    0x0801661a   0x0000008c   Code   RO         1749    x$fpl$fnaninf       fz_ws.l(fnaninf.o)
    0x080166a6   0x0000000a   Code   RO         1751    x$fpl$fretinf       fz_ws.l(fretinf.o)
    0x080166b0   0x00000014   Code   RO         1718    x$fpl$frsb          fz_ws.l(faddsub_clz.o)
    0x080166c4   0x000000ea   Code   RO         1719    x$fpl$fsub          fz_ws.l(faddsub_clz.o)
    0x080167ae   0x00000000   Code   RO         1753    x$fpl$usenofp       fz_ws.l(usenofp.o)
    0x080167ae   0x00000002   PAD
    0x080167b0   0x00000068   Data   RO           12    .constdata          rtc.o
    0x08016818   0x00000100   Data   RO          417    .constdata          os_core.o
    0x08016918   0x00000100   Data   RO         1068    .constdata          os_wrap.o
    0x08016a18   0x00000044   Data   RO         1587    .constdata          MZWlan4G_131.lib(wlan4gcomm.o)
    0x08016a5c   0x00000028   Data   RO         1661    .constdata          c_w.l(_printf_hex_int.o)
    0x08016a84   0x00000011   Data   RO         1691    .constdata          c_w.l(__printf_flags_wp.o)
    0x08016a95   0x00000003   PAD
    0x08016a98   0x00000020   Data   RO         1907    Region$$Table       anon$$obj.o
    0x08016ab8   0x00000017   Data   RO            4    STKV                stm32f10x.o


    Execution Region RW_IRAM1 (Base: 0x20000000, Size: 0x0000d318, Max: 0x00010000, ABSOLUTE, COMPRESSED[0x0000005c])

    Base Addr    Size         Type   Attr      Idx    E Section Name        Object

    0x20000000   0x00001000   Data   RW            1    .ARM.__AT_0x20000000  stm32f10x.o
    0x20001000   0x00000014   Data   RW           13    .data               rtc.o
    0x20001014   0x00000034   Data   RW          418    .data               os_core.o
    0x20001048   0x00000004   Data   RW          592    .data               main.o
    0x2000104c   0x0000003b   Data   RW          611    .data               systeminit.o
    0x20001087   0x00000001   PAD
    0x20001088   0x00000008   Data   RW          669    .data               dispatcher.o
    0x20001090   0x00000002   Data   RW          689    .data               wirelessapp.o
    0x20001092   0x00000002   PAD
    0x20001094   0x0000000d   Data   RW          736    .data               displayprotocol.o
    0x200010a1   0x00000006   Data   RW          812    .data               stm32f10x_it.o
    0x200010a7   0x00000014   Data   RW          966    .data               stm32f10x_rcc.o
    0x200010bb   0x00000001   PAD
    0x200010bc   0x00000008   Data   RW         1069    .data               os_wrap.o
    0x200010c4   0x00000002   Data   RW         1085    .data               displaypara.o
    0x200010c6   0x00000002   PAD
    0x200010c8   0x0000001d   Data   RW         1105    .data               parasettinglib.o
    0x200010e5   0x00000003   PAD
    0x200010e8   0x0000002a   Data   RW         1124    .data               foodlinecontrol.o
    0x20001112   0x00000002   PAD
    0x20001114   0x0000000c   Data   RW         1147    .data               statemachine.o
    0x20001120   0x00000003   Data   RW         1163    .data               page2pathconfig.o
    0x20001123   0x00000002   Data   RW         1181    .data               page1flinepathconfig.o
    0x20001125   0x00000003   PAD
    0x20001128   0x00000009   Data   RW         1198    .data               page3flinedevice.o
    0x20001131   0x00000003   PAD
    0x20001134   0x0000000c   Data   RW         1215    .data               page5revise.o
    0x20001140   0x00000002   Data   RW         1232    .data               page6readpathconfig.o
    0x20001142   0x00000002   PAD
    0x20001144   0x00000006   Data   RW         1249    .data               page7controlfline.o
    0x2000114a   0x00000002   PAD
    0x2000114c   0x00000006   Data   RW         1266    .data               page8switchvalve.o
    0x20001152   0x00000002   PAD
    0x20001154   0x00000009   Data   RW         1283    .data               page9switchvalveconfig.o
    0x2000115d   0x00000003   PAD
    0x20001160   0x00000006   Data   RW         1300    .data               page10towersout.o
    0x20001166   0x00000002   PAD
    0x20001168   0x00000009   Data   RW         1317    .data               page11towersoutconfig.o
    0x20001171   0x00000003   Data   RW         1350    .data               page13linkconfig .o
    0x20001174   0x00000001   Data   RW         1368    .data               page14w1control.o
    0x20001175   0x00000001   Data   RW         1418    .data               page17c1control.o
    0x20001176   0x00000001   Data   RW         1452    .data               page19n1control.o
    0x20001177   0x00000001   PAD
    0x20001178   0x00000034   Data   RW         1487    .data               MZWireless_131.lib(wirelesscomm.o)
    0x200011ac   0x00000038   Data   RW         1588    .data               MZWlan4G_131.lib(wlan4gcomm.o)
    0x200011e4   0x00000034   Data   RW         1613    .data               MZAirIap_132_240K.lib(airiap.o)
    0x20001218   0x00000012   Zero   RW          250    .bss                spi.o
    0x2000122a   0x00000002   PAD
    0x2000122c   0x00000ef8   Zero   RW          416    .bss                os_core.o
    0x20002124   0x00006162   Zero   RW          610    .bss                systeminit.o
    0x20008286   0x00000002   PAD
    0x20008288   0x00000024   Zero   RW          688    .bss                wirelessapp.o
    0x200082ac   0x00001020   Zero   RW          735    .bss                displayprotocol.o
    0x200092cc   0x00000080   Zero   RW          811    .bss                stm32f10x_it.o
    0x2000934c   0x00000400   Zero   RW         1067    .bss                os_wrap.o
    0x2000974c   0x000036be   Zero   RW         1104    .bss                parasettinglib.o
    0x2000ce0a   0x00000002   PAD
    0x2000ce0c   0x0000004c   Zero   RW         1123    .bss                foodlinecontrol.o
    0x2000ce58   0x00000040   Zero   RW         1146    .bss                statemachine.o
    0x2000ce98   0x00000050   Zero   RW         1180    .bss                page1flinepathconfig.o
    0x2000cee8   0x00000108   Zero   RW         1486    .bss                MZWireless_131.lib(wirelesscomm.o)
    0x2000cff0   0x00000234   Zero   RW         1586    .bss                MZWlan4G_131.lib(wlan4gcomm.o)
    0x2000d224   0x00000094   Zero   RW         1612    .bss                MZAirIap_132_240K.lib(airiap.o)
    0x2000d2b8   0x00000060   Zero   RW         1782    .bss                c_w.l(libspace.o)
    0x2000d318   0x00000000   Zero   RW            2    HEAP                stm32f10x.o


==============================================================================

Image component sizes


      Code (inc. data)   RO Data    RW Data    ZI Data      Debug   Object Name

        32          0          0          0          0        540   core_cm3.o
        42          0          0          0          0        276   cpu_a.o
      1336         88          0          0          0      10299   cpu_c.o
        80          0          0          0          0        615   delay.o
       132         20          0          8          0       1099   dispatcher.o
       752         54          0          2          0       2846   displaypara.o
      1932         68          0         13       4128      10904   displayprotocol.o
       414          0          0          0          0       5526   flash.o
      4106        146          0         42         76       9686   foodlinecontrol.o
       192         20          0          4          0        899   main.o
       220         22          0          0          0       3457   misc.o
      1600        120        256         52       3832      14591   os_core.o
       152         30          0          0          0        316   os_cpu_a.o
       244          6          0          0          0       2545   os_cpu_c.o
       968         16          0          0          0       4050   os_mbox.o
      1472         42          0          0          0      12572   os_mutex.o
      1488         28          0          0          0       5417   os_q.o
       916         18          0          0          0       3798   os_sem.o
      1448         64          0          0          0       5010   os_task.o
       428         26          0          0          0       1798   os_time.o
      3300         68        256          8       1024      15683   os_wrap.o
      1088         26          0          6          0       2283   page10towersout.o
      1736         32          0          9          0       2657   page11towersoutconfig.o
      1792          0          0          0          0       2283   page12s1s2control.o
      2232         28          0          3          0       3051   page13linkconfig .o
       668          6          0          1          0       1960   page14w1control.o
      1820         12          0          0          0       2228   page15w2control.o
       586          0          0          0          0       1779   page16e1e2control.o
      2244          4          0          1          0       2592   page17c1control.o
      1872         10          0          0          0       2236   page18c2control.o
       588          4          0          1          0       1920   page19n1control.o
       540         22          0          2         80       2775   page1flinepathconfig.o
       612          6          0          0          0       1720   page20n2control.o
      2036         32          0          3          0       3300   page2pathconfig.o
      1844         30          0          9          0       2618   page3flinedevice.o
       840         22          0         12          0       1956   page5revise.o
      1084         16          0          2          0       2290   page6readpathconfig.o
      1200         24          0          6          0       2331   page7controlfline.o
       976         20          0          6          0       2272   page8switchvalve.o
      1044         22          0          9          0       2418   page9switchvalveconfig.o
      2228         84          0         29      14014      13276   parasettinglib.o
      2136         86        104         20          0     239560   rtc.o
       224         12          0          0         18     228637   spi.o
       672         12          0          0          0       3741   spiflash.o
      1760        114          0         12         64       5694   statemachine.o
       164         50        327       4096          0        500   stm32f10x.o
       196          8          0          0          0       3424   stm32f10x_bkp.o
      1468         34          0          0          0      14358   stm32f10x_flash.o
       860         38          0          0          0      13993   stm32f10x_gpio.o
       668         44          0          6        128       9145   stm32f10x_it.o
        64          6          0          0          0       1249   stm32f10x_iwdg.o
       204         14          0          0          0       1899   stm32f10x_pwr.o
       932         36          0         20          0      17536   stm32f10x_rcc.o
       328          4          0          0          0       2650   stm32f10x_rtc.o
       780         14          0          0          0      13422   stm32f10x_spi.o
      1032         22          0          0          0      14396   stm32f10x_usart.o
       920        172          0         59      24930       5666   systeminit.o
         0          0          0          0          0      24820   time.o
       836         38          0          0          0       2074   uart.o
        44          0          0          0          0        622   wdg.o
      2736         64          0          2         36       5574   wirelessapp.o
       672         24          0          0          0       2406   wlan4gapp.o

    ----------------------------------------------------------------------
     64988       2028        976       4472      48336     781238   Object Totals
         0          0         32          0          0          0   (incl. Generated)
         8          0          1         29          6          0   (incl. Padding)

    ----------------------------------------------------------------------

      Code (inc. data)   RO Data    RW Data    ZI Data      Debug   Library Member Name

      4316        250          0         52        148      13720   airiap.o
      4116        234          0         52        264     232972   wirelesscomm.o
      5156        534         68         56        564      11485   wlan4gcomm.o
        90          0          0          0          0          0   __dczerorl2.o
         8          0          0          0          0         68   __main.o
       312          4         17          0          0         92   __printf_flags_wp.o
        14          0          0          0          0         68   __printf_wp.o
         0          0          0          0          0          0   __rtentry.o
        12          0          0          0          0          0   __rtentry2.o
         6          0          0          0          0          0   __rtentry4.o
        52          8          0          0          0          0   __scatter.o
        28          0          0          0          0          0   __scatter_zi.o
        48          6          0          0          0         96   _printf_char_common.o
         6          0          0          0          0          0   _printf_d.o
       120         16          0          0          0         92   _printf_dec.o
        88          4         40          0          0         88   _printf_hex_int.o
       178          0          0          0          0         88   _printf_intcommon.o
        78          0          0          0          0        108   _printf_pad.o
         0          0          0          0          0          0   _printf_percent.o
         4          0          0          0          0          0   _printf_percent_end.o
         6          0          0          0          0          0   _printf_x.o
        10          0          0          0          0         68   _sputc.o
        12          0          0          0          0         72   exit.o
         6          0          0          0          0        152   heapauxi.o
         0          0          0          0          0          0   indicate_semi.o
         2          0          0          0          0          0   libinit.o
         2          0          0          0          0          0   libinit2.o
         2          0          0          0          0          0   libshutdown.o
         2          0          0          0          0          0   libshutdown2.o
         8          4          0          0         96         68   libspace.o
        40          6          0          0          0         84   noretval__2sprintf.o
        68          0          0          0          0         68   rt_memclr.o
        78          0          0          0          0         80   rt_memclr_w.o
       100          0          0          0          0         80   rt_memcpy_w.o
         2          0          0          0          0          0   rtexit.o
        10          0          0          0          0          0   rtexit2.o
        12          4          0          0          0         68   sys_exit.o
        74          0          0          0          0         80   sys_stackheap_outer.o
         2          0          0          0          0         68   use_no_semi.o
        24          0          0          0          0         68   dcmpi.o
       120          4          0          0          0         92   dleqf.o
       156          4          0          0          0         92   dnaninf.o
        12          0          0          0          0         68   dretinf.o
       108          0          0          0          0         80   drleqf.o
        86          4          0          0          0         84   f2d.o
       450          8          0          0          0        236   faddsub_clz.o
        54          4          0          0          0         84   ffix.o
        48          0          0          0          0         68   fflt_clz.o
       258          4          0          0          0         84   fmul.o
       140          4          0          0          0         84   fnaninf.o
        10          0          0          0          0         68   fretinf.o
         0          0          0          0          0          0   usenofp.o

    ----------------------------------------------------------------------
     16548       1102        128        160       1072     260873   Library Totals
        14          0          3          0          0          0   (incl. Padding)

    ----------------------------------------------------------------------

      Code (inc. data)   RO Data    RW Data    ZI Data      Debug   Library Name

      4316        250          0         52        148      13720   MZAirIap_132_240K.lib
      4116        234          0         52        264     232972   MZWireless_131.lib
      5156        534         68         56        564      11485   MZWlan4G_131.lib
      1480         52         57          0         96       1588   c_w.l
      1466         32          0          0          0       1108   fz_ws.l

    ----------------------------------------------------------------------
     16548       1102        128        160       1072     260873   Library Totals

    ----------------------------------------------------------------------

==============================================================================


      Code (inc. data)   RO Data    RW Data    ZI Data      Debug   

     81536       3130       1104       4632      49408    1035347   Grand Totals
     81536       3130       1104         92      49408    1035347   ELF Image Totals (compressed)
     81536       3130       1104         92          0          0   ROM Totals

==============================================================================

    Total RO  Size (Code + RO Data)                82640 (  80.70kB)
    Total RW  Size (RW Data + ZI Data)             54040 (  52.77kB)
    Total ROM Size (Code + RO Data + RW Data)      82732 (  80.79kB)

==============================================================================

